MPASM 5.87                   MAINLCDMENU.ASM   2-27-2022  1:30:58         PAGE  1


LOC  OBJECT CODE     LINE SOURCE TEXT
  VALUE

Warning[205]: Found directive in column 1. (List)
                      00001 List p=18F26k22
                      00002 #include "p18f26k22.inc"
                      00001         LIST
                      00002 
                      00003 ;==========================================================================
                      00004 ; Build date : Jan 06 2020
                      00005 ;  MPASM PIC18F26K22 processor include
                      00006 ; 
                      00007 ;  (c) Copyright 1999-2020 Microchip Technology, All rights reserved
                      00008 ;==========================================================================
                      00009 
                      02671         LIST
                      00003 
                      00004 ; CONFIG1H
                      00005   CONFIG  FOSC = INTIO67           ; Oscillator Selection bits (HS oscillator (medium power 4-16 MHz))
                      00006   CONFIG  PLLCFG = ON           ; 4X PLL Enable (Oscillator multiplied by 4)
                      00007   CONFIG  PRICLKEN = ON         ; Primary clock enable bit (Primary clock enabled)
                      00008   CONFIG  FCMEN = OFF           ; Fail-Safe Clock Monitor Enable bit (Fail-Safe Clock Monitor disabled)
                      00009   CONFIG  IESO = OFF            ; Internal/External Oscillator Switchover bit (Oscillator Switchover mod
                            e disabled)
                      00010 
                      00011 ; CONFIG2L
                      00012   CONFIG  PWRTEN = OFF          ; Power-up Timer Enable bit (Power up timer disabled)
                      00013   CONFIG  BOREN = SBORDIS       ; Brown-out Reset Enable bits (Brown-out Reset enabled in hardware only 
                            (SBOREN is disabled))
                      00014   CONFIG  BORV = 190            ; Brown Out Reset Voltage bits (VBOR set to 1.90 V nominal)
                      00015 
                      00016 ; CONFIG2H
                      00017   CONFIG  WDTEN = OFF            ; Watchdog Timer Enable bits (WDT is always enabled. SWDTEN bit has no 
                            effect)
                      00018   CONFIG  WDTPS = 32768         ; Watchdog Timer Postscale Select bits (1:32768)
                      00019 
                      00020 ; CONFIG3H
                      00021   CONFIG  CCP2MX = PORTC1       ; CCP2 MUX bit (CCP2 input/output is multiplexed with RC1)
                      00022   CONFIG  PBADEN = OFF          ; PORTB A/D Enable bit (PORTB<5:0> pins are configured as digital I/O on
                             Reset)
                      00023   CONFIG  CCP3MX = PORTB5       ; P3A/CCP3 Mux bit (P3A/CCP3 input/output is multiplexed with RB5)
                      00024   CONFIG  HFOFST = ON           ; HFINTOSC Fast Start-up (HFINTOSC output and ready status are not delay
                            ed by the oscillator stable status)
                      00025   CONFIG  T3CMX = PORTC0        ; Timer3 Clock input mux bit (T3CKI is on RC0)
                      00026   CONFIG  P2BMX = PORTB5        ; ECCP2 B output mux bit (P2B is on RB5)
                      00027   CONFIG  MCLRE = INTMCLR       ; MCLR Pin Enable bit (RE3 input pin enabled; MCLR disabled)
                      00028 
                      00029 ; CONFIG4L
                      00030   CONFIG  STVREN = ON           ; Stack Full/Underflow Reset Enable bit (Stack full/underflow will cause
                             Reset)
                      00031   CONFIG  LVP = OFF             ; Single-Supply ICSP Enable bit (Single-Supply ICSP disabled)
                      00032   CONFIG  XINST = OFF           ; Extended Instruction Set Enable bit (Instruction set extension and Ind
                            exed Addressing mode disabled (Legacy mode))
                      00033 
                      00034 ; CONFIG5L
                      00035   CONFIG  CP0 = OFF             ; Code Protection Block 0 (Block 0 (000800-003FFFh) not code-protected)
MPASM 5.87                   MAINLCDMENU.ASM   2-27-2022  1:30:58         PAGE  2


LOC  OBJECT CODE     LINE SOURCE TEXT
  VALUE

                      00036   CONFIG  CP1 = OFF             ; Code Protection Block 1 (Block 1 (004000-007FFFh) not code-protected)
                      00037   CONFIG  CP2 = OFF             ; Code Protection Block 2 (Block 2 (008000-00BFFFh) not code-protected)
                      00038   CONFIG  CP3 = OFF             ; Code Protection Block 3 (Block 3 (00C000-00FFFFh) not code-protected)
                      00039 
                      00040 ; CONFIG5H
                      00041   CONFIG  CPB = OFF             ; Boot Block Code Protection bit (Boot block (000000-0007FFh) not code-p
                            rotected)
                      00042   CONFIG  CPD = OFF             ; Data EEPROM Code Protection bit (Data EEPROM not code-protected)
                      00043 
                      00044 ; CONFIG6L
                      00045   CONFIG  WRT0 = OFF            ; Write Protection Block 0 (Block 0 (000800-003FFFh) not write-protected
                            )
                      00046   CONFIG  WRT1 = OFF            ; Write Protection Block 1 (Block 1 (004000-007FFFh) not write-protected
                            )
                      00047   CONFIG  WRT2 = OFF            ; Write Protection Block 2 (Block 2 (008000-00BFFFh) not write-protected
                            )
                      00048   CONFIG  WRT3 = OFF            ; Write Protection Block 3 (Block 3 (00C000-00FFFFh) not write-protected
                            )
                      00049 
                      00050 ; CONFIG6H
                      00051   CONFIG  WRTC = OFF            ; Configuration Register Write Protection bit (Configuration registers (
                            300000-3000FFh) not write-protected)
                      00052   CONFIG  WRTB = OFF            ; Boot Block Write Protection bit (Boot Block (000000-0007FFh) not write
                            -protected)
                      00053   CONFIG  WRTD = OFF            ; Data EEPROM Write Protection bit (Data EEPROM not write-protected)
                      00054 
                      00055 ; CONFIG7L
                      00056   CONFIG  EBTR0 = OFF           ; Table Read Protection Block 0 (Block 0 (000800-003FFFh) not protected 
                            from table reads executed in other blocks)
                      00057   CONFIG  EBTR1 = OFF           ; Table Read Protection Block 1 (Block 1 (004000-007FFFh) not protected 
                            from table reads executed in other blocks)
                      00058   CONFIG  EBTR2 = OFF           ; Table Read Protection Block 2 (Block 2 (008000-00BFFFh) not protected 
                            from table reads executed in other blocks)
                      00059   CONFIG  EBTR3 = OFF           ; Table Read Protection Block 3 (Block 3 (00C000-00FFFFh) not protected 
                            from table reads executed in other blocks)
                      00060 
                      00061 ; CONFIG7H
                      00062   CONFIG  EBTRB = OFF           ; Boot Block Table Read Protection bit (Boot Block (000000-0007FFh) not 
                            protected from table reads executed in other blocks)
                      00063 
                      00064         
                      00065         
                      00066         CBLOCK  0x00
  00000000            00067         W_TEMP
  00000001            00068         STATUS_TEMP
  00000002            00069         BSR_TEMP
                      00070 
  00000003            00071         VAR1
  00000004            00072         VAR2
  00000005            00073         VAR3
  00000006            00074         CURSOR
                      00075         
                      00076         ENDC
MPASM 5.87                   MAINLCDMENU.ASM   2-27-2022  1:30:58         PAGE  3


LOC  OBJECT CODE     LINE SOURCE TEXT
  VALUE

                      00077 ;*********************************************************************************
                      00078 ;****************** ORIGEN DE EJECUCION POSTERIOR AL RESET ***********************
                      00079 ;*********************************************************************************
                      00080         ORG     0x000                   ; ORIGEN INICIO RESET
000000 EF?? F???      00081         GOTO    INICIO                  ; ME VOY A INICIO
                      00082         ORG     0x008                   ; ORIGEN ISR ALTA PRIORIDAD
000008 EF?? F???      00083         GOTO    BAJA_PRIORIDAD
                      00084         ORG     0x018                   ; ORIGEN ISR BAJA PRIORIDAD
000018                00085 BAJA_PRIORIDAD
000018 6E00           00086         MOVWF   W_TEMP                  ; MUEVO EL ULTIMA VALOR DE W 
00001A CFD8 F001      00087         MOVFF   STATUS,STATUS_TEMP      ; DE STATUS Y DE BSR
00001E CFE0 F002      00088         MOVFF   BSR,BSR_TEMP            ; PARA RESTAURARLOS AL VALOR ANTES DE LA INTERRUPCION
000022                00089 FIN_INTER
000022 6E00           00090         MOVWF   W_TEMP                  ; MUEVO EL ULTIMA VALOR DE W 
000024 CFD8 F001      00091         MOVFF   STATUS,STATUS_TEMP      ; DE STATUS Y DE BSR
000028 CFE0 F002      00092         MOVFF   BSR,BSR_TEMP            ; PARA RESTAURARLOS AL VALOR ANTES DE LA INTERRUPCION
00002C 0012           00093         RETURN                          ; REGRESO DE INTERRUPCION
00002E                00094 ALTA_PRIORIDAD
00002E EF?? F???      00095         GOTO    FIN_INTER               ; VE A FINAL DE INTERRUPCION
                      00096         
                      00097 ;*********************************************************************************
                      00098 ;**************************CONFIGURACIÓN DE PUERTOS ******************************
                      00099 ;*********************************************************************************
000032                00100 INICIO
                      00101 
000032 8CD3           00102         BSF     OSCCON,IRCF2                    ;CONFIGURO EL OSCILADOR INTERNO
000034 8AD3           00103         BSF     OSCCON,IRCF1                    ;A 16MHZ
000036 88D3           00104         BSF     OSCCON,IRCF0
000038 8C9B           00105         BSF     OSCTUNE,PLLEN
00003A 6A60           00106         CLRF    SLRCON          
                      00107         
00003C 010F           00108         MOVLB   0xF                     ; PARA ACCEDER CORRECTAMENTE
00003E 6B38           00109         CLRF    ANSELA                  ; ANALOGICAS NECESARIAS Y LO
000040 6B39           00110         CLRF    ANSELB                  ; DEMAS COMO ENTRADAS Y SALIDAS
000042 6B3A           00111         CLRF    ANSELC                  ; DIGITALES
                      00112 
                      00113         
000044 010F           00114         MOVLB 0xF
000046 6A80           00115         CLRF    PORTA                   ; LIMPIO EL PUERTO A
000048 6A81           00116         CLRF    PORTB                   ; LIMPIO EL PUERTO B
00004A 6A82           00117         CLRF    PORTC                   ; LIMPIO EL PUERTO C
00004C 0100           00118         MOVLB   0X0                     ; PARA ACCEDER CORRECTAMENTE    
00004E 6A89           00119         CLRF    LATA                    ; LIMPIO LATCH A
000050 6A8A           00120         CLRF    LATB                    ; LIMPIO LATCH B
000052 6A8B           00121         CLRF    LATC                    ; LIMPIO LATCH C
                      00122         
                      00123 
000054 6A92           00124         CLRF    TRISA                   ; SALIDAS DIGITALES PUERTO A
000056 6A93           00125         CLRF    TRISB                   ; SALIDAS DIGITALES PUERTO B
000058 6A94           00126         CLRF    TRISC                   ; SALIDAS DIGITALES PUERTO C
                      00127 
00005A 0EFF           00128         MOVLW   B'11111111'
00005C 6E92           00129         MOVWF   TRISA
MPASM 5.87                   MAINLCDMENU.ASM   2-27-2022  1:30:58         PAGE  4


LOC  OBJECT CODE     LINE SOURCE TEXT
  VALUE

                      00130         
                      00131 ;*********************************************************************************
                      00132 ;**************************CONFIGURACIÓN DE LCD *****************************
                      00133 ;*********************************************************************************
00005E EC?? F???      00134         CALL    INI_LCD                 ; INICIALIZO LCD
                      00135 ;*********************************************************************************
                      00136 ;**************************  ZONA DE CODIGO USUARIO  *****************************
                      00137 ;*********************************************************************************
                      00138     
                      00139         #DEFINE INCREMENTO          PORTA,0
                      00140         #DEFINE DECREMENTO          PORTA,1
                      00141         #DEFINE INTRO               PORTA,2
                      00142         #DEFINE BACK                PORTA,3     
                      00143         
Warning[207]: Found label after column 1. (FLECHA)
  0000007E            00144         FLECHA  EQU B'01111110'
                      00145         
                      00146         
000062                00147 REINICIA_PROGRAMA
000062 EC?? F???      00148         CALL    LCD_CLEAR
000066 EC?? F???      00149         CALL    PRINT_MENU_L1
00006A EC?? F???      00150         CALL    PRINT_MENU_L2
00006E EC?? F???      00151         CALL    PRINT_MENU_L3
000072 EC?? F???      00152         CALL    PRINT_MENU_L4   
000076 6A06           00153         CLRF    CURSOR
000078                00154 PRINCIPAL
000078 A080           00155         BTFSS   INCREMENTO              ; TESTEO BOTON INCREMENTO
00007A EF?? F???      00156         GOTO    CAMBIA_UPC              ; CAMBIO MI CURSOR ARRIBA
00007E A280           00157         BTFSS   DECREMENTO              ; TESTEO BOTON DECREMENTO
000080 EF?? F???      00158         GOTO    CAMBIA_DPC              ; CAMBIO MI CURSOR ARRIBA
000084 A480           00159         BTFSS   INTRO                   ; TESTEO BOTON ENTER
000086 EF?? F???      00160         GOTO    SELECT_MENU             ; ELIJO MENU    
00008A EC?? F???      00161         CALL    MUESTRA_CURSOR          ; MUESTRO EL VALOR CURSOR 
00008E EF?? F???      00162         GOTO    PRINCIPAL               ; REGRESO A LOOP PRINCIPAL
000092                00163 SELECT_MENU
000092 A480           00164         BTFSS   INTRO
000094 EF?? F???      00165         GOTO    SELECT_MENU
000098 5006           00166         MOVF    CURSOR,W                ; MUEVO VARIABLE CURSOR A W
00009A 0800           00167         SUBLW   0X00                    ; RESTO VALOR PARA SABER
00009C A4D8           00168         BTFSS   STATUS,Z                ; TESTEO PIN ZERO
00009E EF?? F???      00169         GOTO    OPCION2                 ; ANALIZO SIGUIENTE VALOR
0000A2 EC?? F???      00170         CALL    OPCION_UNO              ; MENSAJE DE OPCION 1
0000A6 EC?? F???      00171         CALL    RET_1s                  ; RETARDO DE VISUALIZACION
0000AA EC?? F???      00172         CALL    RET_1s                  ; RETARDO DE VISUALIZACION
0000AE EF?? F???      00173         GOTO    REINICIA_PROGRAMA       ; REINICIO PROGRAMA
0000B2                00174 OPCION2 
0000B2 5006           00175         MOVF    CURSOR,W                ; MUEVO VARIABLE CURSOR A W
0000B4 0801           00176         SUBLW   0X01                    ; RESTO VALOR PARA SABER
0000B6 A4D8           00177         BTFSS   STATUS,Z                ; TESTEO PIN ZERO
0000B8 EF?? F???      00178         GOTO    OPCION3                 ; ANALIZO SIGUIENTE VALOR
0000BC EC?? F???      00179         CALL    OPCION_DOS              ; MENSAJE DE OPCION 2
0000C0 EC?? F???      00180         CALL    RET_1s                  ; RETARDO DE VISUALIZACION
0000C4 EC?? F???      00181         CALL    RET_1s                  ; RETARDO DE VISUALIZACION
MPASM 5.87                   MAINLCDMENU.ASM   2-27-2022  1:30:58         PAGE  5


LOC  OBJECT CODE     LINE SOURCE TEXT
  VALUE

0000C8 EF?? F???      00182         GOTO    REINICIA_PROGRAMA       ; REINICIO PROGRAMA
0000CC                00183 OPCION3 
0000CC 5006           00184         MOVF    CURSOR,W                ; MUEVO VARIABLE CURSOR A W
0000CE 0802           00185         SUBLW   0X02                    ; RESTO VALOR PARA SABER
0000D0 A4D8           00186         BTFSS   STATUS,Z                ; TESTEO PIN ZERO
0000D2 EF?? F???      00187         GOTO    PRINCIPAL               ; ANALIZO SIGUIENTE VALOR
0000D6 EC?? F???      00188         CALL    OPCION_TRES             ; MENSAJE DE OPCION 3
0000DA EC?? F???      00189         CALL    RET_1s                  ; RETARDO DE VISUALIZACION
0000DE EC?? F???      00190         CALL    RET_1s                  ; RETARDO DE VISUALIZACION
0000E2 EF?? F???      00191         GOTO    REINICIA_PROGRAMA       ; REINICIO PROGRAMA
0000E6                00192 OPCION_UNO
0000E6 EC?? F???      00193         CALL    LCD_CLEAR               ; LIMPIO PANTALLA
0000EA EC?? F???      00194         CALL    LCD_L1                  ;
0000EE 0E20           00195         MOVLW   ' '                     ; CARACTER A MOSTRAR
0000F0 EC?? F???      00196         CALL    ENVIAR_DATO             ; ENVIO CARACTER A LCD 
0000F4 0E20           00197         MOVLW   ' '                     ; CARACTER A MOSTRAR
0000F6 EC?? F???      00198         CALL    ENVIAR_DATO             ; ENVIO CARACTER A LCD 
0000FA 0E20           00199         MOVLW   ' '                     ; CARACTER A MOSTRAR
0000FC EC?? F???      00200         CALL    ENVIAR_DATO             ; ENVIO CARACTER A LCD  
000100 0E48           00201         MOVLW   'H'                     ; CARACTER A MOSTRAR
000102 EC?? F???      00202         CALL    ENVIAR_DATO             ; ENVIO CARACTER A LCD 
000106 0E41           00203         MOVLW   'A'                     ; CARACTER A MOSTRAR
000108 EC?? F???      00204         CALL    ENVIAR_DATO             ; ENVIO CARACTER A LCD 
00010C 0E53           00205         MOVLW   'S'                     ; CARACTER A MOSTRAR
00010E EC?? F???      00206         CALL    ENVIAR_DATO             ; ENVIO CARACTER A LCD 
000112 0E20           00207         MOVLW   ' '                     ; CARACTER A MOSTRAR
000114 EC?? F???      00208         CALL    ENVIAR_DATO             ; ENVIO CARACTER A LCD 
000118 0E45           00209         MOVLW   'E'                     ; CARACTER A MOSTRAR
00011A EC?? F???      00210         CALL    ENVIAR_DATO             ; ENVIO CARACTER A LCD 
00011E 0E4C           00211         MOVLW   'L'                     ; CARACTER A MOSTRAR
000120 EC?? F???      00212         CALL    ENVIAR_DATO             ; ENVIO CARACTER A LCD 
000124 0E45           00213         MOVLW   'E'                     ; CARACTER A MOSTRAR
000126 EC?? F???      00214         CALL    ENVIAR_DATO             ; ENVIO CARACTER A LCD 
00012A 0E47           00215         MOVLW   'G'                     ; CARACTER A MOSTRAR
00012C EC?? F???      00216         CALL    ENVIAR_DATO             ; ENVIO CARACTER A LCD  
000130 0E49           00217         MOVLW   'I'                     ; CARACTER A MOSTRAR
000132 EC?? F???      00218         CALL    ENVIAR_DATO             ; ENVIO CARACTER A LCD 
000136 0E44           00219         MOVLW   'D'                     ; CARACTER A MOSTRAR
000138 EC?? F???      00220         CALL    ENVIAR_DATO             ; ENVIO CARACTER A LCD 
00013C 0E4F           00221         MOVLW   'O'                     ; CARACTER A MOSTRAR
00013E EC?? F???      00222         CALL    ENVIAR_DATO             ; ENVIO CARACTER A LCD 
000142 0E20           00223         MOVLW   ' '                     ; CARACTER A MOSTRAR
000144 EC?? F???      00224         CALL    ENVIAR_DATO             ; ENVIO CARACTER A LCD 
000148 0E20           00225         MOVLW   ' '                     ; CARACTER A MOSTRAR
00014A EC?? F???      00226         CALL    ENVIAR_DATO             ; ENVIO CARACTER A LCD  
00014E 0E20           00227         MOVLW   ' '                     ; CARACTER A MOSTRAR
000150 EC?? F???      00228         CALL    ENVIAR_DATO             ; ENVIO CARACTER A LCD 
000154 0E20           00229         MOVLW   ' '                     ; CARACTER A MOSTRAR
000156 EC?? F???      00230         CALL    ENVIAR_DATO             ; ENVIO CARACTER A LCD 
00015A 0E20           00231         MOVLW   ' '                     ; CARACTER A MOSTRAR
00015C EC?? F???      00232         CALL    ENVIAR_DATO             ; ENVIO CARACTER A LCD 
000160 0E20           00233         MOVLW   ' '                     ; CARACTER A MOSTRAR
000162 EC?? F???      00234         CALL    ENVIAR_DATO             ; ENVIO CARACTER A LCD
MPASM 5.87                   MAINLCDMENU.ASM   2-27-2022  1:30:58         PAGE  6


LOC  OBJECT CODE     LINE SOURCE TEXT
  VALUE

                      00235         
000166 EC?? F???      00236         CALL    LCD_L3                  ;
00016A 0E20           00237         MOVLW   ' '                     ; CARACTER A MOSTRAR
00016C EC?? F???      00238         CALL    ENVIAR_DATO             ; ENVIO CARACTER A LCD 
000170 0E20           00239         MOVLW   ' '                     ; CARACTER A MOSTRAR
000172 EC?? F???      00240         CALL    ENVIAR_DATO             ; ENVIO CARACTER A LCD 
000176 0E20           00241         MOVLW   ' '                     ; CARACTER A MOSTRAR
000178 EC?? F???      00242         CALL    ENVIAR_DATO             ; ENVIO CARACTER A LCD  
00017C 0E20           00243         MOVLW   ' '                     ; CARACTER A MOSTRAR
00017E EC?? F???      00244         CALL    ENVIAR_DATO             ; ENVIO CARACTER A LCD 
000182 0E4C           00245         MOVLW   'L'                     ; CARACTER A MOSTRAR
000184 EC?? F???      00246         CALL    ENVIAR_DATO             ; ENVIO CARACTER A LCD 
000188 0E41           00247         MOVLW   'A'                     ; CARACTER A MOSTRAR
00018A EC?? F???      00248         CALL    ENVIAR_DATO             ; ENVIO CARACTER A LCD  
00018E 0E20           00249         MOVLW   ' '                     ; CARACTER A MOSTRAR
000190 EC?? F???      00250         CALL    ENVIAR_DATO             ; ENVIO CARACTER A LCD 
000194 0E4F           00251         MOVLW   'O'                     ; CARACTER A MOSTRAR
000196 EC?? F???      00252         CALL    ENVIAR_DATO             ; ENVIO CARACTER A LCD 
00019A 0E50           00253         MOVLW   'P'                     ; CARACTER A MOSTRAR
00019C EC?? F???      00254         CALL    ENVIAR_DATO             ; ENVIO CARACTER A LCD 
0001A0 0E43           00255         MOVLW   'C'                     ; CARACTER A MOSTRAR
0001A2 EC?? F???      00256         CALL    ENVIAR_DATO             ; ENVIO CARACTER A LCD 
0001A6 0E49           00257         MOVLW   'I'                     ; CARACTER A MOSTRAR
0001A8 EC?? F???      00258         CALL    ENVIAR_DATO             ; ENVIO CARACTER A LCD 
0001AC 0E4F           00259         MOVLW   'O'                     ; CARACTER A MOSTRAR
0001AE EC?? F???      00260         CALL    ENVIAR_DATO             ; ENVIO CARACTER A LCD 
0001B2 0E4E           00261         MOVLW   'N'                     ; CARACTER A MOSTRAR
0001B4 EC?? F???      00262         CALL    ENVIAR_DATO             ; ENVIO CARACTER A LCD 
0001B8 0E20           00263         MOVLW   ' '                     ; CARACTER A MOSTRAR
0001BA EC?? F???      00264         CALL    ENVIAR_DATO             ; ENVIO CARACTER A LCD  
0001BE 0E23           00265         MOVLW   '#'                     ; CARACTER A MOSTRAR
0001C0 EC?? F???      00266         CALL    ENVIAR_DATO             ; ENVIO CARACTER A LCD 
0001C4 0E31           00267         MOVLW   '1'                     ; CARACTER A MOSTRAR
0001C6 EC?? F???      00268         CALL    ENVIAR_DATO             ; ENVIO CARACTER A LCD 
0001CA 0E20           00269         MOVLW   ' '                     ; CARACTER A MOSTRAR
0001CC EC?? F???      00270         CALL    ENVIAR_DATO             ; ENVIO CARACTER A LCD 
0001D0 0E20           00271         MOVLW   ' '                     ; CARACTER A MOSTRAR
0001D2 EC?? F???      00272         CALL    ENVIAR_DATO             ; ENVIO CARACTER A LCD 
0001D6 0E20           00273         MOVLW   ' '                     ; CARACTER A MOSTRAR
0001D8 EC?? F???      00274         CALL    ENVIAR_DATO             ; ENVIO CARACTER A LCD  
0001DC 0E20           00275         MOVLW   ' '                     ; CARACTER A MOSTRAR
0001DE EC?? F???      00276         CALL    ENVIAR_DATO             ; ENVIO CARACTER A LCD 
0001E2 0012           00277         RETURN
0001E4                00278 OPCION_DOS
0001E4 EC?? F???      00279         CALL    LCD_CLEAR               ; LIMPIO PANTALLA
0001E8 EC?? F???      00280         CALL    LCD_L1                  ;
0001EC 0E20           00281         MOVLW   ' '                     ; CARACTER A MOSTRAR
0001EE EC?? F???      00282         CALL    ENVIAR_DATO             ; ENVIO CARACTER A LCD 
0001F2 0E20           00283         MOVLW   ' '                     ; CARACTER A MOSTRAR
0001F4 EC?? F???      00284         CALL    ENVIAR_DATO             ; ENVIO CARACTER A LCD 
0001F8 0E20           00285         MOVLW   ' '                     ; CARACTER A MOSTRAR
0001FA EC?? F???      00286         CALL    ENVIAR_DATO             ; ENVIO CARACTER A LCD  
0001FE 0E48           00287         MOVLW   'H'                     ; CARACTER A MOSTRAR
MPASM 5.87                   MAINLCDMENU.ASM   2-27-2022  1:30:58         PAGE  7


LOC  OBJECT CODE     LINE SOURCE TEXT
  VALUE

000200 EC?? F???      00288         CALL    ENVIAR_DATO             ; ENVIO CARACTER A LCD 
000204 0E41           00289         MOVLW   'A'                     ; CARACTER A MOSTRAR
000206 EC?? F???      00290         CALL    ENVIAR_DATO             ; ENVIO CARACTER A LCD 
00020A 0E53           00291         MOVLW   'S'                     ; CARACTER A MOSTRAR
00020C EC?? F???      00292         CALL    ENVIAR_DATO             ; ENVIO CARACTER A LCD 
000210 0E20           00293         MOVLW   ' '                     ; CARACTER A MOSTRAR
000212 EC?? F???      00294         CALL    ENVIAR_DATO             ; ENVIO CARACTER A LCD 
000216 0E45           00295         MOVLW   'E'                     ; CARACTER A MOSTRAR
000218 EC?? F???      00296         CALL    ENVIAR_DATO             ; ENVIO CARACTER A LCD 
00021C 0E4C           00297         MOVLW   'L'                     ; CARACTER A MOSTRAR
00021E EC?? F???      00298         CALL    ENVIAR_DATO             ; ENVIO CARACTER A LCD 
000222 0E45           00299         MOVLW   'E'                     ; CARACTER A MOSTRAR
000224 EC?? F???      00300         CALL    ENVIAR_DATO             ; ENVIO CARACTER A LCD 
000228 0E47           00301         MOVLW   'G'                     ; CARACTER A MOSTRAR
00022A EC?? F???      00302         CALL    ENVIAR_DATO             ; ENVIO CARACTER A LCD  
00022E 0E49           00303         MOVLW   'I'                     ; CARACTER A MOSTRAR
000230 EC?? F???      00304         CALL    ENVIAR_DATO             ; ENVIO CARACTER A LCD 
000234 0E44           00305         MOVLW   'D'                     ; CARACTER A MOSTRAR
000236 EC?? F???      00306         CALL    ENVIAR_DATO             ; ENVIO CARACTER A LCD 
00023A 0E4F           00307         MOVLW   'O'                     ; CARACTER A MOSTRAR
00023C EC?? F???      00308         CALL    ENVIAR_DATO             ; ENVIO CARACTER A LCD 
000240 0E20           00309         MOVLW   ' '                     ; CARACTER A MOSTRAR
000242 EC?? F???      00310         CALL    ENVIAR_DATO             ; ENVIO CARACTER A LCD 
000246 0E20           00311         MOVLW   ' '                     ; CARACTER A MOSTRAR
000248 EC?? F???      00312         CALL    ENVIAR_DATO             ; ENVIO CARACTER A LCD  
00024C 0E20           00313         MOVLW   ' '                     ; CARACTER A MOSTRAR
00024E EC?? F???      00314         CALL    ENVIAR_DATO             ; ENVIO CARACTER A LCD 
000252 0E20           00315         MOVLW   ' '                     ; CARACTER A MOSTRAR
000254 EC?? F???      00316         CALL    ENVIAR_DATO             ; ENVIO CARACTER A LCD 
000258 0E20           00317         MOVLW   ' '                     ; CARACTER A MOSTRAR
00025A EC?? F???      00318         CALL    ENVIAR_DATO             ; ENVIO CARACTER A LCD 
00025E 0E20           00319         MOVLW   ' '                     ; CARACTER A MOSTRAR
000260 EC?? F???      00320         CALL    ENVIAR_DATO             ; ENVIO CARACTER A LCD
                      00321         
000264 EC?? F???      00322         CALL    LCD_L3                  ;
000268 0E20           00323         MOVLW   ' '                     ; CARACTER A MOSTRAR
00026A EC?? F???      00324         CALL    ENVIAR_DATO             ; ENVIO CARACTER A LCD 
00026E 0E20           00325         MOVLW   ' '                     ; CARACTER A MOSTRAR
000270 EC?? F???      00326         CALL    ENVIAR_DATO             ; ENVIO CARACTER A LCD 
000274 0E20           00327         MOVLW   ' '                     ; CARACTER A MOSTRAR
000276 EC?? F???      00328         CALL    ENVIAR_DATO             ; ENVIO CARACTER A LCD  
00027A 0E20           00329         MOVLW   ' '                     ; CARACTER A MOSTRAR
00027C EC?? F???      00330         CALL    ENVIAR_DATO             ; ENVIO CARACTER A LCD 
000280 0E4C           00331         MOVLW   'L'                     ; CARACTER A MOSTRAR
000282 EC?? F???      00332         CALL    ENVIAR_DATO             ; ENVIO CARACTER A LCD 
000286 0E41           00333         MOVLW   'A'                     ; CARACTER A MOSTRAR
000288 EC?? F???      00334         CALL    ENVIAR_DATO             ; ENVIO CARACTER A LCD  
00028C 0E20           00335         MOVLW   ' '                     ; CARACTER A MOSTRAR
00028E EC?? F???      00336         CALL    ENVIAR_DATO             ; ENVIO CARACTER A LCD 
000292 0E4F           00337         MOVLW   'O'                     ; CARACTER A MOSTRAR
000294 EC?? F???      00338         CALL    ENVIAR_DATO             ; ENVIO CARACTER A LCD 
000298 0E50           00339         MOVLW   'P'                     ; CARACTER A MOSTRAR
00029A EC?? F???      00340         CALL    ENVIAR_DATO             ; ENVIO CARACTER A LCD 
MPASM 5.87                   MAINLCDMENU.ASM   2-27-2022  1:30:58         PAGE  8


LOC  OBJECT CODE     LINE SOURCE TEXT
  VALUE

00029E 0E43           00341         MOVLW   'C'                     ; CARACTER A MOSTRAR
0002A0 EC?? F???      00342         CALL    ENVIAR_DATO             ; ENVIO CARACTER A LCD 
0002A4 0E49           00343         MOVLW   'I'                     ; CARACTER A MOSTRAR
0002A6 EC?? F???      00344         CALL    ENVIAR_DATO             ; ENVIO CARACTER A LCD 
0002AA 0E4F           00345         MOVLW   'O'                     ; CARACTER A MOSTRAR
0002AC EC?? F???      00346         CALL    ENVIAR_DATO             ; ENVIO CARACTER A LCD 
0002B0 0E4E           00347         MOVLW   'N'                     ; CARACTER A MOSTRAR
0002B2 EC?? F???      00348         CALL    ENVIAR_DATO             ; ENVIO CARACTER A LCD 
0002B6 0E20           00349         MOVLW   ' '                     ; CARACTER A MOSTRAR
0002B8 EC?? F???      00350         CALL    ENVIAR_DATO             ; ENVIO CARACTER A LCD  
0002BC 0E23           00351         MOVLW   '#'                     ; CARACTER A MOSTRAR
0002BE EC?? F???      00352         CALL    ENVIAR_DATO             ; ENVIO CARACTER A LCD 
0002C2 0E32           00353         MOVLW   '2'                     ; CARACTER A MOSTRAR
0002C4 EC?? F???      00354         CALL    ENVIAR_DATO             ; ENVIO CARACTER A LCD 
0002C8 0E20           00355         MOVLW   ' '                     ; CARACTER A MOSTRAR
0002CA EC?? F???      00356         CALL    ENVIAR_DATO             ; ENVIO CARACTER A LCD 
0002CE 0E20           00357         MOVLW   ' '                     ; CARACTER A MOSTRAR
0002D0 EC?? F???      00358         CALL    ENVIAR_DATO             ; ENVIO CARACTER A LCD 
0002D4 0E20           00359         MOVLW   ' '                     ; CARACTER A MOSTRAR
0002D6 EC?? F???      00360         CALL    ENVIAR_DATO             ; ENVIO CARACTER A LCD  
0002DA 0E20           00361         MOVLW   ' '                     ; CARACTER A MOSTRAR
0002DC EC?? F???      00362         CALL    ENVIAR_DATO             ; ENVIO CARACTER A LCD 
0002E0 0012           00363         RETURN  
0002E2                00364 OPCION_TRES     
0002E2 EC?? F???      00365         CALL    LCD_CLEAR               ; LIMPIO PANTALLA
0002E6 EC?? F???      00366         CALL    LCD_L1                  ;
0002EA 0E20           00367         MOVLW   ' '                     ; CARACTER A MOSTRAR
0002EC EC?? F???      00368         CALL    ENVIAR_DATO             ; ENVIO CARACTER A LCD 
0002F0 0E20           00369         MOVLW   ' '                     ; CARACTER A MOSTRAR
0002F2 EC?? F???      00370         CALL    ENVIAR_DATO             ; ENVIO CARACTER A LCD 
0002F6 0E20           00371         MOVLW   ' '                     ; CARACTER A MOSTRAR
0002F8 EC?? F???      00372         CALL    ENVIAR_DATO             ; ENVIO CARACTER A LCD  
0002FC 0E48           00373         MOVLW   'H'                     ; CARACTER A MOSTRAR
0002FE EC?? F???      00374         CALL    ENVIAR_DATO             ; ENVIO CARACTER A LCD 
000302 0E41           00375         MOVLW   'A'                     ; CARACTER A MOSTRAR
000304 EC?? F???      00376         CALL    ENVIAR_DATO             ; ENVIO CARACTER A LCD 
000308 0E53           00377         MOVLW   'S'                     ; CARACTER A MOSTRAR
00030A EC?? F???      00378         CALL    ENVIAR_DATO             ; ENVIO CARACTER A LCD 
00030E 0E20           00379         MOVLW   ' '                     ; CARACTER A MOSTRAR
000310 EC?? F???      00380         CALL    ENVIAR_DATO             ; ENVIO CARACTER A LCD 
000314 0E45           00381         MOVLW   'E'                     ; CARACTER A MOSTRAR
000316 EC?? F???      00382         CALL    ENVIAR_DATO             ; ENVIO CARACTER A LCD 
00031A 0E4C           00383         MOVLW   'L'                     ; CARACTER A MOSTRAR
00031C EC?? F???      00384         CALL    ENVIAR_DATO             ; ENVIO CARACTER A LCD 
000320 0E45           00385         MOVLW   'E'                     ; CARACTER A MOSTRAR
000322 EC?? F???      00386         CALL    ENVIAR_DATO             ; ENVIO CARACTER A LCD 
000326 0E47           00387         MOVLW   'G'                     ; CARACTER A MOSTRAR
000328 EC?? F???      00388         CALL    ENVIAR_DATO             ; ENVIO CARACTER A LCD  
00032C 0E49           00389         MOVLW   'I'                     ; CARACTER A MOSTRAR
00032E EC?? F???      00390         CALL    ENVIAR_DATO             ; ENVIO CARACTER A LCD 
000332 0E44           00391         MOVLW   'D'                     ; CARACTER A MOSTRAR
000334 EC?? F???      00392         CALL    ENVIAR_DATO             ; ENVIO CARACTER A LCD 
000338 0E4F           00393         MOVLW   'O'                     ; CARACTER A MOSTRAR
MPASM 5.87                   MAINLCDMENU.ASM   2-27-2022  1:30:58         PAGE  9


LOC  OBJECT CODE     LINE SOURCE TEXT
  VALUE

00033A EC?? F???      00394         CALL    ENVIAR_DATO             ; ENVIO CARACTER A LCD 
00033E 0E20           00395         MOVLW   ' '                     ; CARACTER A MOSTRAR
000340 EC?? F???      00396         CALL    ENVIAR_DATO             ; ENVIO CARACTER A LCD 
000344 0E20           00397         MOVLW   ' '                     ; CARACTER A MOSTRAR
000346 EC?? F???      00398         CALL    ENVIAR_DATO             ; ENVIO CARACTER A LCD  
00034A 0E20           00399         MOVLW   ' '                     ; CARACTER A MOSTRAR
00034C EC?? F???      00400         CALL    ENVIAR_DATO             ; ENVIO CARACTER A LCD 
000350 0E20           00401         MOVLW   ' '                     ; CARACTER A MOSTRAR
000352 EC?? F???      00402         CALL    ENVIAR_DATO             ; ENVIO CARACTER A LCD 
000356 0E20           00403         MOVLW   ' '                     ; CARACTER A MOSTRAR
000358 EC?? F???      00404         CALL    ENVIAR_DATO             ; ENVIO CARACTER A LCD 
00035C 0E20           00405         MOVLW   ' '                     ; CARACTER A MOSTRAR
00035E EC?? F???      00406         CALL    ENVIAR_DATO             ; ENVIO CARACTER A LCD
                      00407         
000362 EC?? F???      00408         CALL    LCD_L3                  ;
000366 0E20           00409         MOVLW   ' '                     ; CARACTER A MOSTRAR
000368 EC?? F???      00410         CALL    ENVIAR_DATO             ; ENVIO CARACTER A LCD 
00036C 0E20           00411         MOVLW   ' '                     ; CARACTER A MOSTRAR
00036E EC?? F???      00412         CALL    ENVIAR_DATO             ; ENVIO CARACTER A LCD 
000372 0E20           00413         MOVLW   ' '                     ; CARACTER A MOSTRAR
000374 EC?? F???      00414         CALL    ENVIAR_DATO             ; ENVIO CARACTER A LCD  
000378 0E20           00415         MOVLW   ' '                     ; CARACTER A MOSTRAR
00037A EC?? F???      00416         CALL    ENVIAR_DATO             ; ENVIO CARACTER A LCD 
00037E 0E4C           00417         MOVLW   'L'                     ; CARACTER A MOSTRAR
000380 EC?? F???      00418         CALL    ENVIAR_DATO             ; ENVIO CARACTER A LCD 
000384 0E41           00419         MOVLW   'A'                     ; CARACTER A MOSTRAR
000386 EC?? F???      00420         CALL    ENVIAR_DATO             ; ENVIO CARACTER A LCD  
00038A 0E20           00421         MOVLW   ' '                     ; CARACTER A MOSTRAR
00038C EC?? F???      00422         CALL    ENVIAR_DATO             ; ENVIO CARACTER A LCD 
000390 0E4F           00423         MOVLW   'O'                     ; CARACTER A MOSTRAR
000392 EC?? F???      00424         CALL    ENVIAR_DATO             ; ENVIO CARACTER A LCD 
000396 0E50           00425         MOVLW   'P'                     ; CARACTER A MOSTRAR
000398 EC?? F???      00426         CALL    ENVIAR_DATO             ; ENVIO CARACTER A LCD 
00039C 0E43           00427         MOVLW   'C'                     ; CARACTER A MOSTRAR
00039E EC?? F???      00428         CALL    ENVIAR_DATO             ; ENVIO CARACTER A LCD 
0003A2 0E49           00429         MOVLW   'I'                     ; CARACTER A MOSTRAR
0003A4 EC?? F???      00430         CALL    ENVIAR_DATO             ; ENVIO CARACTER A LCD 
0003A8 0E4F           00431         MOVLW   'O'                     ; CARACTER A MOSTRAR
0003AA EC?? F???      00432         CALL    ENVIAR_DATO             ; ENVIO CARACTER A LCD 
0003AE 0E4E           00433         MOVLW   'N'                     ; CARACTER A MOSTRAR
0003B0 EC?? F???      00434         CALL    ENVIAR_DATO             ; ENVIO CARACTER A LCD 
0003B4 0E20           00435         MOVLW   ' '                     ; CARACTER A MOSTRAR
0003B6 EC?? F???      00436         CALL    ENVIAR_DATO             ; ENVIO CARACTER A LCD  
0003BA 0E23           00437         MOVLW   '#'                     ; CARACTER A MOSTRAR
0003BC EC?? F???      00438         CALL    ENVIAR_DATO             ; ENVIO CARACTER A LCD 
0003C0 0E33           00439         MOVLW   '3'                     ; CARACTER A MOSTRAR
0003C2 EC?? F???      00440         CALL    ENVIAR_DATO             ; ENVIO CARACTER A LCD 
0003C6 0E20           00441         MOVLW   ' '                     ; CARACTER A MOSTRAR
0003C8 EC?? F???      00442         CALL    ENVIAR_DATO             ; ENVIO CARACTER A LCD 
0003CC 0E20           00443         MOVLW   ' '                     ; CARACTER A MOSTRAR
0003CE EC?? F???      00444         CALL    ENVIAR_DATO             ; ENVIO CARACTER A LCD 
0003D2 0E20           00445         MOVLW   ' '                     ; CARACTER A MOSTRAR
0003D4 EC?? F???      00446         CALL    ENVIAR_DATO             ; ENVIO CARACTER A LCD  
MPASM 5.87                   MAINLCDMENU.ASM   2-27-2022  1:30:58         PAGE 10


LOC  OBJECT CODE     LINE SOURCE TEXT
  VALUE

0003D8 0E20           00447         MOVLW   ' '                     ; CARACTER A MOSTRAR
0003DA EC?? F???      00448         CALL    ENVIAR_DATO             ; ENVIO CARACTER A LCD 
0003DE 0012           00449         RETURN  
                      00450         
                      00451         
0003E0                00452 CAMBIA_DPC
0003E0 A280           00453         BTFSS   DECREMENTO              ; ESPERO QUE SE SUELTE EL BOTON 
0003E2 EF?? F???      00454         GOTO    CAMBIA_DPC              ; PARA EJECUTAR ACCION
0003E6 0606           00455         DECF    CURSOR,F                ; INCREMENTO EN 1 VARIABLE
0003E8 5006           00456         MOVF    CURSOR,W                ; MUEVO EL VALOR CURSOR A W
0003EA 08FF           00457         SUBLW   0XFF                    ; Y RESTO EL VALOR MAXIMO +1
0003EC A4D8           00458         BTFSS   STATUS,Z                ; TESTEO PIN ZERO STATUS
0003EE EF?? F???      00459         GOTO    PRINCIPAL               ; PRINCIPAL
0003F2 0E02           00460         MOVLW   .2
0003F4 6E06           00461         MOVWF   CURSOR                  ; REINICIO MI VARIABLE
0003F6 EF?? F???      00462         GOTO    PRINCIPAL               ;
0003FA                00463 CAMBIA_UPC
0003FA A080           00464         BTFSS   INCREMENTO              ; ESPERO QUE SE SUELTE EL BOTON 
0003FC EF?? F???      00465         GOTO    CAMBIA_UPC              ; PARA EJECUTAR ACCION
000400 2A06           00466         INCF    CURSOR,F                ; INCREMENTO EN 1 VARIABLE
000402 5006           00467         MOVF    CURSOR,W                ; MUEVO EL VALOR CURSOR A W
000404 0803           00468         SUBLW   .3                      ; Y RESTO EL VALOR MAXIMO +1
000406 A4D8           00469         BTFSS   STATUS,Z                ; TESTEO PIN ZERO STATUS
000408 EF?? F???      00470         GOTO    PRINCIPAL               ; PRINCIPAL
00040C 6A06           00471         CLRF    CURSOR                  ; REINICIO MI VARIABLE
00040E EF?? F???      00472         GOTO    PRINCIPAL               ;
                      00473 ;*******************************************************************************
000412                00474 MUESTRA_CURSOR
000412 5006           00475         MOVF    CURSOR,W                ; MUEVO VARIABLE CURSOR A W
000414 0800           00476         SUBLW   0X00                    ; RESTO VALOR PARA SABER
000416 A4D8           00477         BTFSS   STATUS,Z                ; TESTEO PIN ZERO
000418 EF?? F???      00478         GOTO    CURSOR1V                ; ANALIZO SIGUIENTE VALOR
00041C EC?? F???      00479         CALL    LCD_L2                  ; ME POSICION EN L2
000420 0E7E           00480         MOVLW   FLECHA                  ; MUEVO CURSOR A W
000422 EC?? F???      00481         CALL    ENVIAR_DATO             ; ENVIO DATO A LCD
000426 EC?? F???      00482         CALL    LCD_L3                  ; POSICIONE EN SIGUIENTE LINEA 
00042A 0E20           00483         MOVLW   ' '                     ; PARA BORRAR EL CURSOR
00042C EC?? F???      00484         CALL    ENVIAR_DATO             ; ENVIO DATO A LCD
000430 EC?? F???      00485         CALL    LCD_L4                  ; POSICIONE EN SIGUIENTE LINEA 
000434 0E20           00486         MOVLW   ' '                     ; PARA BORRAR EL CURSOR
000436 EC?? F???      00487         CALL    ENVIAR_DATO             ; ENVIO DATO A LCD      
00043A 0012           00488         RETURN                          ; REGRESO 
00043C                00489 CURSOR1V
00043C 5006           00490         MOVF    CURSOR,W                ; MUEVO VARIABLE CURSOR A W
00043E 0801           00491         SUBLW   0X01                    ; RESTO VALOR PARA SABER
000440 A4D8           00492         BTFSS   STATUS,Z                ; TESTEO PIN ZERO
000442 EF?? F???      00493         GOTO    CURSOR2V                ; ANALIZO SIGUIENTE VALOR
000446 EC?? F???      00494         CALL    LCD_L3                  ; ME POSICION EN L2
00044A 0E7E           00495         MOVLW   FLECHA                  ; MUEVO CURSOR A W
00044C EC?? F???      00496         CALL    ENVIAR_DATO             ; ENVIO DATO A LCD
000450 EC?? F???      00497         CALL    LCD_L2                  ; POSICIONE EN SIGUIENTE LINEA 
000454 0E20           00498         MOVLW   ' '                     ; PARA BORRAR EL CURSOR
000456 EC?? F???      00499         CALL    ENVIAR_DATO             ; ENVIO DATO A LCD
MPASM 5.87                   MAINLCDMENU.ASM   2-27-2022  1:30:58         PAGE 11


LOC  OBJECT CODE     LINE SOURCE TEXT
  VALUE

00045A EC?? F???      00500         CALL    LCD_L4                  ; POSICIONE EN SIGUIENTE LINEA 
00045E 0E20           00501         MOVLW   ' '                     ; PARA BORRAR EL CURSOR
000460 EC?? F???      00502         CALL    ENVIAR_DATO             ; ENVIO DATO A LCD              
000464 0012           00503         RETURN                          ; REGRESO 
000466                00504 CURSOR2V
000466 5006           00505         MOVF    CURSOR,W                ; MUEVO VARIABLE CURSOR A W
000468 0802           00506         SUBLW   0X02                    ; RESTO VALOR PARA SABER
00046A A4D8           00507         BTFSS   STATUS,Z                ; TESTEO PIN ZERO
00046C 0012           00508         RETURN;GOTO     CURSOR2V                ; ANALIZO SIGUIENTE VALOR
00046E EC?? F???      00509         CALL    LCD_L4                  ; ME POSICION EN L2
000472 0E7E           00510         MOVLW   FLECHA                  ; MUEVO CURSOR A W
000474 EC?? F???      00511         CALL    ENVIAR_DATO             ; ENVIO DATO A LCD
000478 EC?? F???      00512         CALL    LCD_L3                  ; POSICIONE EN SIGUIENTE LINEA 
00047C 0E20           00513         MOVLW   ' '                     ; PARA BORRAR EL CURSOR
00047E EC?? F???      00514         CALL    ENVIAR_DATO             ; ENVIO DATO A LCD
000482 EC?? F???      00515         CALL    LCD_L2                  ; POSICIONE EN SIGUIENTE LINEA 
000486 0E20           00516         MOVLW   ' '                     ; PARA BORRAR EL CURSOR
000488 EC?? F???      00517         CALL    ENVIAR_DATO             ; ENVIO DATO A LCD              
00048C 0012           00518         RETURN                          ; REGRESO       
                      00519 ;*******************************************************************************        
00048E                00520 PRINT_MENU_L1
00048E EC?? F???      00521         CALL    LCD_L1                  ; POSICIONAMIENTO LCD L1
000492 0E20           00522         MOVLW   ' '                     ; CARACTER A MOSTRAR
000494 EC?? F???      00523         CALL    ENVIAR_DATO             ; ENVIO CARACTER A LCD 
000498 0E20           00524         MOVLW   ' '                     ; CARACTER A MOSTRAR
00049A EC?? F???      00525         CALL    ENVIAR_DATO             ; ENVIO CARACTER A LCD 
00049E 0E20           00526         MOVLW   ' '                     ; CARACTER A MOSTRAR
0004A0 EC?? F???      00527         CALL    ENVIAR_DATO             ; ENVIO CARACTER A LCD  
0004A4 0E4D           00528         MOVLW   'M'                     ; CARACTER A MOSTRAR
0004A6 EC?? F???      00529         CALL    ENVIAR_DATO             ; ENVIO CARACTER A LCD 
0004AA 0E45           00530         MOVLW   'E'                     ; CARACTER A MOSTRAR
0004AC EC?? F???      00531         CALL    ENVIAR_DATO             ; ENVIO CARACTER A LCD 
0004B0 0E4E           00532         MOVLW   'N'                     ; CARACTER A MOSTRAR
0004B2 EC?? F???      00533         CALL    ENVIAR_DATO             ; ENVIO CARACTER A LCD 
0004B6 0E55           00534         MOVLW   'U'                     ; CARACTER A MOSTRAR
0004B8 EC?? F???      00535         CALL    ENVIAR_DATO             ; ENVIO CARACTER A LCD 
0004BC 0E20           00536         MOVLW   ' '                     ; CARACTER A MOSTRAR
0004BE EC?? F???      00537         CALL    ENVIAR_DATO             ; ENVIO CARACTER A LCD 
0004C2 0E45           00538         MOVLW   'E'                     ; CARACTER A MOSTRAR
0004C4 EC?? F???      00539         CALL    ENVIAR_DATO             ; ENVIO CARACTER A LCD 
0004C8 0E53           00540         MOVLW   'S'                     ; CARACTER A MOSTRAR
0004CA EC?? F???      00541         CALL    ENVIAR_DATO             ; ENVIO CARACTER A LCD 
0004CE 0E54           00542         MOVLW   'T'                     ; CARACTER A MOSTRAR
0004D0 EC?? F???      00543         CALL    ENVIAR_DATO             ; ENVIO CARACTER A LCD  
0004D4 0E41           00544         MOVLW   'A'                     ; CARACTER A MOSTRAR
0004D6 EC?? F???      00545         CALL    ENVIAR_DATO             ; ENVIO CARACTER A LCD 
0004DA 0E44           00546         MOVLW   'D'                     ; CARACTER A MOSTRAR
0004DC EC?? F???      00547         CALL    ENVIAR_DATO             ; ENVIO CARACTER A LCD 
0004E0 0E4F           00548         MOVLW   'O'                     ; CARACTER A MOSTRAR
0004E2 EC?? F???      00549         CALL    ENVIAR_DATO             ; ENVIO CARACTER A LCD 
0004E6 0E53           00550         MOVLW   'S'                     ; CARACTER A MOSTRAR
0004E8 EC?? F???      00551         CALL    ENVIAR_DATO             ; ENVIO CARACTER A LCD 
0004EC 0E20           00552         MOVLW   ' '                     ; CARACTER A MOSTRAR
MPASM 5.87                   MAINLCDMENU.ASM   2-27-2022  1:30:58         PAGE 12


LOC  OBJECT CODE     LINE SOURCE TEXT
  VALUE

0004EE EC?? F???      00553         CALL    ENVIAR_DATO             ; ENVIO CARACTER A LCD  
0004F2 0E20           00554         MOVLW   ' '                     ; CARACTER A MOSTRAR
0004F4 EC?? F???      00555         CALL    ENVIAR_DATO             ; ENVIO CARACTER A LCD 
0004F8 0E20           00556         MOVLW   ' '                     ; CARACTER A MOSTRAR
0004FA EC?? F???      00557         CALL    ENVIAR_DATO             ; ENVIO CARACTER A LCD 
0004FE 0E20           00558         MOVLW   ' '                     ; CARACTER A MOSTRAR
000500 EC?? F???      00559         CALL    ENVIAR_DATO             ; ENVIO CARACTER A LCD 
000504 0E20           00560         MOVLW   ' '                     ; CARACTER A MOSTRAR
000506 EC?? F???      00561         CALL    ENVIAR_DATO             ; ENVIO CARACTER A LCD 
00050A 0012           00562         RETURN                          ; RETORNO DE CALL
                      00563 ;*******************************************************************************
                      00564 ;*******************************************************************************        
00050C                00565 PRINT_MENU_L2
00050C EC?? F???      00566         CALL    LCD_L2                  ; POSICIONAMIENTO LCD L1
000510 0E20           00567         MOVLW   ' '                     ; CARACTER A MOSTRAR
000512 EC?? F???      00568         CALL    ENVIAR_DATO             ; ENVIO CARACTER A LCD 
000516 0E4F           00569         MOVLW   'O'                     ; CARACTER A MOSTRAR
000518 EC?? F???      00570         CALL    ENVIAR_DATO             ; ENVIO CARACTER A LCD 
00051C 0E70           00571         MOVLW   'p'                     ; CARACTER A MOSTRAR
00051E EC?? F???      00572         CALL    ENVIAR_DATO             ; ENVIO CARACTER A LCD  
000522 0E63           00573         MOVLW   'c'                     ; CARACTER A MOSTRAR
000524 EC?? F???      00574         CALL    ENVIAR_DATO             ; ENVIO CARACTER A LCD 
000528 0E69           00575         MOVLW   'i'                     ; CARACTER A MOSTRAR
00052A EC?? F???      00576         CALL    ENVIAR_DATO             ; ENVIO CARACTER A LCD 
00052E 0E6F           00577         MOVLW   'o'                     ; CARACTER A MOSTRAR
000530 EC?? F???      00578         CALL    ENVIAR_DATO             ; ENVIO CARACTER A LCD 
000534 0E6E           00579         MOVLW   'n'                     ; CARACTER A MOSTRAR
000536 EC?? F???      00580         CALL    ENVIAR_DATO             ; ENVIO CARACTER A LCD  
00053A 0E20           00581         MOVLW   ' '                     ; CARACTER A MOSTRAR
00053C EC?? F???      00582         CALL    ENVIAR_DATO             ; ENVIO CARACTER A LCD 
000540 0E23           00583         MOVLW   '#'                     ; CARACTER A MOSTRAR
000542 EC?? F???      00584         CALL    ENVIAR_DATO             ; ENVIO CARACTER A LCD 
000546 0E31           00585         MOVLW   '1'                     ; CARACTER A MOSTRAR
000548 EC?? F???      00586         CALL    ENVIAR_DATO             ; ENVIO CARACTER A LCD 
00054C 0E20           00587         MOVLW   ' '                     ; CARACTER A MOSTRAR
00054E EC?? F???      00588         CALL    ENVIAR_DATO             ; ENVIO CARACTER A LCD  
000552 0E20           00589         MOVLW   ' '                     ; CARACTER A MOSTRAR
000554 EC?? F???      00590         CALL    ENVIAR_DATO             ; ENVIO CARACTER A LCD 
000558 0E20           00591         MOVLW   ' '                     ; CARACTER A MOSTRAR
00055A EC?? F???      00592         CALL    ENVIAR_DATO             ; ENVIO CARACTER A LCD 
00055E 0E20           00593         MOVLW   ' '                     ; CARACTER A MOSTRAR
000560 EC?? F???      00594         CALL    ENVIAR_DATO             ; ENVIO CARACTER A LCD 
000564 0E20           00595         MOVLW   ' '                     ; CARACTER A MOSTRAR
000566 EC?? F???      00596         CALL    ENVIAR_DATO             ; ENVIO CARACTER A LCD 
00056A 0E20           00597         MOVLW   ' '                     ; CARACTER A MOSTRAR
00056C EC?? F???      00598         CALL    ENVIAR_DATO             ; ENVIO CARACTER A LCD  
000570 0E20           00599         MOVLW   ' '                     ; CARACTER A MOSTRAR
000572 EC?? F???      00600         CALL    ENVIAR_DATO             ; ENVIO CARACTER A LCD 
000576 0E20           00601         MOVLW   ' '                     ; CARACTER A MOSTRAR
000578 EC?? F???      00602         CALL    ENVIAR_DATO             ; ENVIO CARACTER A LCD 
00057C 0E20           00603         MOVLW   ' '                     ; CARACTER A MOSTRAR
00057E EC?? F???      00604         CALL    ENVIAR_DATO             ; ENVIO CARACTER A LCD 
000582 0E20           00605         MOVLW   ' '                     ; CARACTER A MOSTRAR
MPASM 5.87                   MAINLCDMENU.ASM   2-27-2022  1:30:58         PAGE 13


LOC  OBJECT CODE     LINE SOURCE TEXT
  VALUE

000584 EC?? F???      00606         CALL    ENVIAR_DATO             ; ENVIO CARACTER A LCD 
000588 0012           00607         RETURN                          ; RETORNO DE CALL
                      00608 ;*******************************************************************************
                      00609 ;*******************************************************************************        
00058A                00610 PRINT_MENU_L3
00058A EC?? F???      00611         CALL    LCD_L3                  ; POSICIONAMIENTO LCD L1
00058E 0E20           00612         MOVLW   ' '                     ; CARACTER A MOSTRAR
000590 EC?? F???      00613         CALL    ENVIAR_DATO             ; ENVIO CARACTER A LCD 
000594 0E4F           00614         MOVLW   'O'                     ; CARACTER A MOSTRAR
000596 EC?? F???      00615         CALL    ENVIAR_DATO             ; ENVIO CARACTER A LCD 
00059A 0E70           00616         MOVLW   'p'                     ; CARACTER A MOSTRAR
00059C EC?? F???      00617         CALL    ENVIAR_DATO             ; ENVIO CARACTER A LCD  
0005A0 0E63           00618         MOVLW   'c'                     ; CARACTER A MOSTRAR
0005A2 EC?? F???      00619         CALL    ENVIAR_DATO             ; ENVIO CARACTER A LCD 
0005A6 0E69           00620         MOVLW   'i'                     ; CARACTER A MOSTRAR
0005A8 EC?? F???      00621         CALL    ENVIAR_DATO             ; ENVIO CARACTER A LCD 
0005AC 0E6F           00622         MOVLW   'o'                     ; CARACTER A MOSTRAR
0005AE EC?? F???      00623         CALL    ENVIAR_DATO             ; ENVIO CARACTER A LCD
0005B2 0E6E           00624         MOVLW   'n'                     ; CARACTER A MOSTRAR
0005B4 EC?? F???      00625         CALL    ENVIAR_DATO             ; ENVIO CARACTER A LCD          
0005B8 0E20           00626         MOVLW   ' '                     ; CARACTER A MOSTRAR
0005BA EC?? F???      00627         CALL    ENVIAR_DATO             ; ENVIO CARACTER A LCD 
0005BE 0E23           00628         MOVLW   '#'                     ; CARACTER A MOSTRAR
0005C0 EC?? F???      00629         CALL    ENVIAR_DATO             ; ENVIO CARACTER A LCD 
0005C4 0E32           00630         MOVLW   '2'                     ; CARACTER A MOSTRAR
0005C6 EC?? F???      00631         CALL    ENVIAR_DATO             ; ENVIO CARACTER A LCD 
0005CA 0E20           00632         MOVLW   ' '                     ; CARACTER A MOSTRAR
0005CC EC?? F???      00633         CALL    ENVIAR_DATO             ; ENVIO CARACTER A LCD  
0005D0 0E20           00634         MOVLW   ' '                     ; CARACTER A MOSTRAR
0005D2 EC?? F???      00635         CALL    ENVIAR_DATO             ; ENVIO CARACTER A LCD 
0005D6 0E20           00636         MOVLW   ' '                     ; CARACTER A MOSTRAR
0005D8 EC?? F???      00637         CALL    ENVIAR_DATO             ; ENVIO CARACTER A LCD 
0005DC 0E20           00638         MOVLW   ' '                     ; CARACTER A MOSTRAR
0005DE EC?? F???      00639         CALL    ENVIAR_DATO             ; ENVIO CARACTER A LCD 
0005E2 0E20           00640         MOVLW   ' '                     ; CARACTER A MOSTRAR
0005E4 EC?? F???      00641         CALL    ENVIAR_DATO             ; ENVIO CARACTER A LCD 
0005E8 0E20           00642         MOVLW   ' '                     ; CARACTER A MOSTRAR
0005EA EC?? F???      00643         CALL    ENVIAR_DATO             ; ENVIO CARACTER A LCD  
0005EE 0E20           00644         MOVLW   ' '                     ; CARACTER A MOSTRAR
0005F0 EC?? F???      00645         CALL    ENVIAR_DATO             ; ENVIO CARACTER A LCD 
0005F4 0E20           00646         MOVLW   ' '                     ; CARACTER A MOSTRAR
0005F6 EC?? F???      00647         CALL    ENVIAR_DATO             ; ENVIO CARACTER A LCD 
0005FA 0E20           00648         MOVLW   ' '                     ; CARACTER A MOSTRAR
0005FC EC?? F???      00649         CALL    ENVIAR_DATO             ; ENVIO CARACTER A LCD 
000600 0E20           00650         MOVLW   ' '                     ; CARACTER A MOSTRAR
000602 EC?? F???      00651         CALL    ENVIAR_DATO             ; ENVIO CARACTER A LCD 
000606 0012           00652         RETURN                          ; RETORNO DE CALL
                      00653 ;*******************************************************************************
                      00654 ;*******************************************************************************        
000608                00655 PRINT_MENU_L4
000608 EC?? F???      00656         CALL    LCD_L4                  ; POSICIONAMIENTO LCD L1
00060C 0E20           00657         MOVLW   ' '                     ; CARACTER A MOSTRAR
00060E EC?? F???      00658         CALL    ENVIAR_DATO             ; ENVIO CARACTER A LCD 
MPASM 5.87                   MAINLCDMENU.ASM   2-27-2022  1:30:58         PAGE 14


LOC  OBJECT CODE     LINE SOURCE TEXT
  VALUE

000612 0E4F           00659         MOVLW   'O'                     ; CARACTER A MOSTRAR
000614 EC?? F???      00660         CALL    ENVIAR_DATO             ; ENVIO CARACTER A LCD 
000618 0E70           00661         MOVLW   'p'                     ; CARACTER A MOSTRAR
00061A EC?? F???      00662         CALL    ENVIAR_DATO             ; ENVIO CARACTER A LCD  
00061E 0E63           00663         MOVLW   'c'                     ; CARACTER A MOSTRAR
000620 EC?? F???      00664         CALL    ENVIAR_DATO             ; ENVIO CARACTER A LCD 
000624 0E69           00665         MOVLW   'i'                     ; CARACTER A MOSTRAR
000626 EC?? F???      00666         CALL    ENVIAR_DATO             ; ENVIO CARACTER A LCD 
00062A 0E6F           00667         MOVLW   'o'                     ; CARACTER A MOSTRAR
00062C EC?? F???      00668         CALL    ENVIAR_DATO             ; ENVIO CARACTER A LCD 
000630 0E6E           00669         MOVLW   'n'                     ; CARACTER A MOSTRAR
000632 EC?? F???      00670         CALL    ENVIAR_DATO             ; ENVIO CARACTER A LCD          
000636 0E20           00671         MOVLW   ' '                     ; CARACTER A MOSTRAR
000638 EC?? F???      00672         CALL    ENVIAR_DATO             ; ENVIO CARACTER A LCD 
00063C 0E23           00673         MOVLW   '#'                     ; CARACTER A MOSTRAR
00063E EC?? F???      00674         CALL    ENVIAR_DATO             ; ENVIO CARACTER A LCD 
000642 0E33           00675         MOVLW   '3'                     ; CARACTER A MOSTRAR
000644 EC?? F???      00676         CALL    ENVIAR_DATO             ; ENVIO CARACTER A LCD 
000648 0E20           00677         MOVLW   ' '                     ; CARACTER A MOSTRAR
00064A EC?? F???      00678         CALL    ENVIAR_DATO             ; ENVIO CARACTER A LCD  
00064E 0E20           00679         MOVLW   ' '                     ; CARACTER A MOSTRAR
000650 EC?? F???      00680         CALL    ENVIAR_DATO             ; ENVIO CARACTER A LCD 
000654 0E20           00681         MOVLW   ' '                     ; CARACTER A MOSTRAR
000656 EC?? F???      00682         CALL    ENVIAR_DATO             ; ENVIO CARACTER A LCD 
00065A 0E20           00683         MOVLW   ' '                     ; CARACTER A MOSTRAR
00065C EC?? F???      00684         CALL    ENVIAR_DATO             ; ENVIO CARACTER A LCD 
000660 0E20           00685         MOVLW   ' '                     ; CARACTER A MOSTRAR
000662 EC?? F???      00686         CALL    ENVIAR_DATO             ; ENVIO CARACTER A LCD 
000666 0E20           00687         MOVLW   ' '                     ; CARACTER A MOSTRAR
000668 EC?? F???      00688         CALL    ENVIAR_DATO             ; ENVIO CARACTER A LCD  
00066C 0E20           00689         MOVLW   ' '                     ; CARACTER A MOSTRAR
00066E EC?? F???      00690         CALL    ENVIAR_DATO             ; ENVIO CARACTER A LCD 
000672 0E20           00691         MOVLW   ' '                     ; CARACTER A MOSTRAR
000674 EC?? F???      00692         CALL    ENVIAR_DATO             ; ENVIO CARACTER A LCD 
000678 0E20           00693         MOVLW   ' '                     ; CARACTER A MOSTRAR
00067A EC?? F???      00694         CALL    ENVIAR_DATO             ; ENVIO CARACTER A LCD 
00067E 0E20           00695         MOVLW   ' '                     ; CARACTER A MOSTRAR
000680 EC?? F???      00696         CALL    ENVIAR_DATO             ; ENVIO CARACTER A LCD 
000684 0012           00697         RETURN                          ; RETORNO DE CALL
                      00698 ;*******************************************************************************        
                      00699 
                      00700         ;*********************************************************
                      00701 ;       MOVF    VAR4,W                  ; MUEVO VARIABLE A WREG
000686 EC?? F???      00702         CALL    CONVERSION_BCD          ; LLAMO RUTINA DE CONVERSIÓN BCD
00068A 500E           00703         MOVF    AUX_CENTENAS,W          ; MUEVO EL RESULTADO CENTENAS A W 
00068C EC?? F???      00704         CALL    ENVIAR_DATO             ; ENVIO CARACTER A LCD  
000690 500D           00705         MOVF    AUX_DECENAS,W           ; MUEVO EL RESULTADO DECENAS A W 
000692 EC?? F???      00706         CALL    ENVIAR_DATO             ; ENVIO CARACTER A LCD  
000696 500C           00707         MOVF    AUX_UNIDADES,W          ; MUEVO EL RESULTADO UNIDADES A W 
000698 EC?? F???      00708         CALL    ENVIAR_DATO             ; ENVIO CARACTER A LCD  
                      00709         ;**********************************************************     
00069C 0012           00710         RETURN                          ; RETORNO DE CALL
                      00711 ;*******************************************************************************        
MPASM 5.87                   MAINLCDMENU.ASM   2-27-2022  1:30:58         PAGE 15


LOC  OBJECT CODE     LINE SOURCE TEXT
  VALUE

                      00712 
                      00713 #INCLUDE<RETARDOS.INC>
Warning[205]: Found directive in column 1. (CBLOCK)
                      00001 CBLOCK
  00000007            00002     VAR_X
Warning[205]: Found directive in column 1. (ENDC)
                      00003 ENDC
                      00004 
00069E                00005 RET_SERVO
00069E 0E03           00006         MOVLW   B'00000011'             ; TIMER 0 16 BITS
0006A0 6ED5           00007         MOVWF   T0CON   
0006A2 94F2           00008         BCF     INTCON,TMR0IF
0006A4 0EFF           00009         MOVLW   0XFF
0006A6 6ED7           00010         MOVWF   TMR0H
0006A8 0EFA           00011         MOVLW   0XFA
0006AA 6ED6           00012         MOVWF   TMR0L
0006AC 8ED5           00013         BSF     T0CON,TMR0ON
0006AE EF?? F???      00014         GOTO    CICLO_RETARDO           
                      00015 
0006B2                00016 RET_1s
0006B2 0E07           00017         MOVLW   B'00000111'             ; TIMER 0 16 BITS
0006B4 6ED5           00018         MOVWF   T0CON                   ; PREESCALER 256
0006B6 94F2           00019         BCF     INTCON,TMR0IF
0006B8 0E0B           00020         MOVLW   0X0B
0006BA 6ED7           00021         MOVWF   TMR0H
0006BC 0EDB           00022         MOVLW   0XDB
0006BE 6ED6           00023         MOVWF   TMR0L
0006C0 8ED5           00024         BSF     T0CON,TMR0ON
0006C2 EF?? F???      00025         GOTO    CICLO_RETARDO   
                      00026         
0006C6                00027 RET_500ms
0006C6 0E07           00028         MOVLW   B'00000111'             ; TIMER 0 16 BITS
0006C8 6ED5           00029         MOVWF   T0CON                   ; PREESCALER 256
0006CA 94F2           00030         BCF     INTCON,TMR0IF
0006CC 0E85           00031         MOVLW   0X85
0006CE 6ED7           00032         MOVWF   TMR0H
0006D0 0EED           00033         MOVLW   0XED
0006D2 6ED6           00034         MOVWF   TMR0L
0006D4 8ED5           00035         BSF     T0CON,TMR0ON
0006D6 EF?? F???      00036         GOTO    CICLO_RETARDO   
0006DA                00037 RET_100ms
0006DA 0E04           00038         MOVLW   B'00000100'             ; TIMER 0 16 BITS
0006DC 6ED5           00039         MOVWF   T0CON   
0006DE 94F2           00040         BCF     INTCON,TMR0IF
0006E0 0E3C           00041         MOVLW   0X3C
0006E2 6ED7           00042         MOVWF   TMR0H
0006E4 0EAF           00043         MOVLW   0XAF
0006E6 6ED6           00044         MOVWF   TMR0L
0006E8 8ED5           00045         BSF     T0CON,TMR0ON
0006EA EF?? F???      00046         GOTO    CICLO_RETARDO   
0006EE                00047 RET_50ms
0006EE 0E04           00048         MOVLW   B'00000100'             ; TIMER 0 16 BITS
0006F0 6ED5           00049         MOVWF   T0CON   
MPASM 5.87                   MAINLCDMENU.ASM   2-27-2022  1:30:58         PAGE 16


LOC  OBJECT CODE     LINE SOURCE TEXT
  VALUE

0006F2 94F2           00050         BCF     INTCON,TMR0IF
0006F4 0E9E           00051         MOVLW   0X9E
0006F6 6ED7           00052         MOVWF   TMR0H
0006F8 0E57           00053         MOVLW   0X57
0006FA 6ED6           00054         MOVWF   TMR0L
0006FC 8ED5           00055         BSF     T0CON,TMR0ON
0006FE EF?? F???      00056         GOTO    CICLO_RETARDO   
000702                00057 RET_33ms
000702 0E04           00058         MOVLW   B'00000100'             ; TIMER 0 16 BITS
000704 6ED5           00059         MOVWF   T0CON   
000706 94F2           00060         BCF     INTCON,TMR0IF
000708 0EBF           00061         MOVLW   0XBF
00070A 6ED7           00062         MOVWF   TMR0H
00070C 0E8B           00063         MOVLW   0X8B
00070E 6ED6           00064         MOVWF   TMR0L
000710 8ED5           00065         BSF     T0CON,TMR0ON
000712 EF?? F???      00066         GOTO    CICLO_RETARDO   
000716                00067 RET_16ms
000716 0E04           00068         MOVLW   B'00000100'             ; TIMER 0 16 BITS
000718 6ED5           00069         MOVWF   T0CON   
00071A 94F2           00070         BCF     INTCON,TMR0IF
00071C 0EE0           00071         MOVLW   0XE0
00071E 6ED7           00072         MOVWF   TMR0H
000720 0EBF           00073         MOVLW   0XBF
000722 6ED6           00074         MOVWF   TMR0L
000724 8ED5           00075         BSF     T0CON,TMR0ON
000726 EF?? F???      00076         GOTO    CICLO_RETARDO   
00072A                00077 RET_18ms
00072A 0E04           00078         MOVLW   B'00000100'             ; TIMER 0 16 BITS
00072C 6ED5           00079         MOVWF   T0CON   
00072E 94F2           00080         BCF     INTCON,TMR0IF
000730 0EDC           00081         MOVLW   0XDC
000732 6ED7           00082         MOVWF   TMR0H
000734 0ED7           00083         MOVLW   0XD7
000736 6ED6           00084         MOVWF   TMR0L
000738 8ED5           00085         BSF     T0CON,TMR0ON
00073A EF?? F???      00086         GOTO    CICLO_RETARDO   
00073E                00087 RET_10ms
00073E 0E03           00088         MOVLW   B'00000011'             ; TIMER 0 16 BITS
000740 6ED5           00089         MOVWF   T0CON   
000742 94F2           00090         BCF     INTCON,TMR0IF
000744 0ED8           00091         MOVLW   0XD8
000746 6ED7           00092         MOVWF   TMR0H
000748 0EF0           00093         MOVLW   0XF0
00074A 6ED6           00094         MOVWF   TMR0L
00074C 8ED5           00095         BSF     T0CON,TMR0ON
00074E EF?? F???      00096         GOTO    CICLO_RETARDO   
000752                00097 RET_5ms
000752 0E00           00098         MOVLW   B'00000000'             ; TIMER 0 16 BITS
000754 6ED5           00099         MOVWF   T0CON   
000756 94F2           00100         BCF     INTCON,TMR0IF
000758 0E63           00101         MOVLW   .99
00075A 6ED7           00102         MOVWF   TMR0H
MPASM 5.87                   MAINLCDMENU.ASM   2-27-2022  1:30:58         PAGE 17


LOC  OBJECT CODE     LINE SOURCE TEXT
  VALUE

00075C 0E52           00103         MOVLW   .82
00075E 6ED6           00104         MOVWF   TMR0L   
000760 8ED5           00105         BSF     T0CON,TMR0ON
000762 EF?? F???      00106         GOTO    CICLO_RETARDO
000766                00107 RET_500us
000766 0E04           00108         MOVLW   B'00000100'             ; TIMER 0 16 BITS
000768 6ED5           00109         MOVWF   T0CON   
00076A 94F2           00110         BCF     INTCON,TMR0IF
00076C 0EFF           00111         MOVLW   0XFF
00076E 6ED7           00112         MOVWF   TMR0H
000770 0E05           00113         MOVLW   0X05
000772 6ED6           00114         MOVWF   TMR0L
000774 8ED5           00115         BSF     T0CON,TMR0ON
000776 EF?? F???      00116         GOTO    CICLO_RETARDO
00077A                00117 RET_250us
00077A 0E04           00118         MOVLW   B'00000100'             ; TIMER 0 16 BITS
00077C 6ED5           00119         MOVWF   T0CON   
00077E 94F2           00120         BCF     INTCON,TMR0IF
000780 0EFF           00121         MOVLW   0XFF
000782 6ED7           00122         MOVWF   TMR0H
000784 0E82           00123         MOVLW   0X82
000786 6ED6           00124         MOVWF   TMR0L
000788 8ED5           00125         BSF     T0CON,TMR0ON
00078A EF?? F???      00126         GOTO    CICLO_RETARDO
00078E                00127 RET_100us
00078E 0E04           00128         MOVLW   B'00000100'             ; TIMER 0 16 BITS
000790 6ED5           00129         MOVWF   T0CON   
000792 94F2           00130         BCF     INTCON,TMR0IF
000794 0EFF           00131         MOVLW   0XFF
000796 6ED7           00132         MOVWF   TMR0H
000798 0EC2           00133         MOVLW   0XC2
00079A 6ED6           00134         MOVWF   TMR0L
00079C 8ED5           00135         BSF     T0CON,TMR0ON
00079E EF?? F???      00136         GOTO    CICLO_RETARDO   
0007A2                00137 RET_1ms
0007A2 0E04           00138         MOVLW   B'00000100'             ; TIMER 0 16 BITS
0007A4 6ED5           00139         MOVWF   T0CON   
0007A6 94F2           00140         BCF     INTCON,TMR0IF
0007A8 0EFE           00141         MOVLW   0XFE
0007AA 6ED7           00142         MOVWF   TMR0H
0007AC 0E0D           00143         MOVLW   0X0D
0007AE 6ED6           00144         MOVWF   TMR0L
0007B0 8ED5           00145         BSF     T0CON,TMR0ON
0007B2 EF?? F???      00146         GOTO    CICLO_RETARDO
0007B6                00147 CICLO_RETARDO   
0007B6 A4F2           00148         BTFSS   INTCON,TMR0IF
0007B8 EF?? F???      00149         GOTO    CICLO_RETARDO
0007BC 94F2           00150         BCF     INTCON,TMR0IF
0007BE 9ED5           00151         BCF     T0CON,TMR0ON
0007C0 0012           00152         RETURN
                      00153 
                      00154 
                      00155 
MPASM 5.87                   MAINLCDMENU.ASM   2-27-2022  1:30:58         PAGE 18


LOC  OBJECT CODE     LINE SOURCE TEXT
  VALUE

                      00156 
                      00157 
                      00158 
                      00159 
                      00160 
                      00161 
                      00162 
                      00163 
                      00164 
                      00165 
                      00166 
                      00714 #INCLUDE<LCD_4BIT.INC>  
                      00001     CBLOCK
  00000008            00002     LCD_DATO
  00000009            00003     LCD_GuardaDato
  0000000A            00004     LCD_Auxiliar1
  0000000B            00005     LCD_Auxiliar2
  0000000C            00006     AUX_UNIDADES                ;       
  0000000D            00007     AUX_DECENAS                 ; 
  0000000E            00008     AUX_CENTENAS                ;
  0000000F            00009     AUXILIAR 
                      00010     ENDC
                      00011 
  00000014            00012 CHAR_X_LINEA    EQU     .20             ; Número de caracteres por línea de la pantalla.
                      00013 
                      00014 #DEFINE  RS             LATC,2          ; PIN DE CONTROL LCD
                      00015 #DEFINE  RE             LATC,3          ; PIN DE CONTROL LCD
                      00016 #DEFINE  LCD_BUS        LATC            ; BUS DE DATOS 4 BITS ALTOS
                      00017 
                      00018         
                      00019 ;***************************************************************************************************
                      00020 ;**************** RUTINAS ESPECIALES PARA CONVERSIÓN BINARIO A TRES DIGITOS ************************
                      00021 ;***************************************************************************************************    
0007C2                00022 CONVERSION_BIN
0007C2 6E0F           00023         MOVWF   AUXILIAR                ; MOVEMOS EL VALOR QUE VIENE EN W AL REGISTRO AUXILIAR
0007C4 6A0C           00024         CLRF    AUX_UNIDADES            ; LIMPIAMOS NUESTROS AUXILIARES 
0007C6 6A0D           00025         CLRF    AUX_DECENAS             ; LIMPIAMOS NUESTROS AUXILIARES
0007C8 6A0E           00026         CLRF    AUX_CENTENAS            ; LIMPIAMOS NUESTROS AUXILIARES
0007CA                00027 BS_CENTENAS
0007CA 0E64           00028         MOVLW   .100                    ; CARGAMOS UN 100 A W
0007CC 5C0F           00029         SUBWF   AUXILIAR,W              ; LE RESTAMOS A NUESTRO VALOR PRINCIPAL 
0007CE B0D8           00030         BTFSC   STATUS,C                ; PREGUNTAMOS SI ES MAYOR O MENOR
0007D0 EF?? F???      00031         GOTO    BSUMA_CENTENAS          ; SI NO ES MENOR PROCEDEMOS A SUMAR CENTENAS
0007D4 EF?? F???      00032         GOTO    BS_DECENAS              ; SI ES MENOR VAMOS A SUMAR DECENAS
0007D8                00033 BSUMA_CENTENAS
0007D8 6E0F           00034         MOVWF   AUXILIAR                ; EL RESULTADO LO ACTUALIZAMOS EN W
0007DA 2A0E           00035         INCF    AUX_CENTENAS,F          ; INCREMENTAMOS EL REGISTRO DE CENTENAS EN 1
0007DC EF?? F???      00036         GOTO    BS_CENTENAS             ; REGRESAMOS A LA ETIQUETA S_CENTENAS
0007E0                00037 BS_DECENAS
0007E0 0E0A           00038         MOVLW   .10                     ; CARGAMOS EL VALOR 10 A W
0007E2 5C0F           00039         SUBWF   AUXILIAR,W              ; PARA RESTARLO A NUESTRO VALOR PRINCIPAL
0007E4 B0D8           00040         BTFSC   STATUS,C                ; PREGUNTAMOS SI ES MAYOR O MENOR
0007E6 EF?? F???      00041         GOTO    BSUMA_DECENAS           ; SI FUE MAYOR EL NUMERO VAMOS A SUMAR DECENAS
MPASM 5.87                   MAINLCDMENU.ASM   2-27-2022  1:30:58         PAGE 19


LOC  OBJECT CODE     LINE SOURCE TEXT
  VALUE

0007EA EF?? F???      00042         GOTO    BSUMA_UNIDADES          ; SI ES MENOR VAMOS A SUMAR UNIDADES
0007EE                00043 BSUMA_DECENAS
0007EE 6E0F           00044         MOVWF   AUXILIAR                ; AUCTUALIZAMOS LA VARIABLE AUXILIAR
0007F0 2A0D           00045         INCF    AUX_DECENAS,1           ; INCREMENTAMOS EN 1 AL REGISTRO DECENAS
0007F2 EF?? F???      00046         GOTO    BS_DECENAS              ; REGRESAMOS A ETIQUETA DE S_DECENAS
0007F6                00047 BSUMA_UNIDADES  
0007F6 500F           00048         MOVF    AUXILIAR,W              ; EN UNIDADES EL RESIDUO DE LAS OPERACIONES ES CARGADO A AUX_UNI
                            DADES
0007F8 6E0C           00049         MOVWF   AUX_UNIDADES            ; AUN SI ES CERO
0007FA 0012           00050         RETURN                          ; QUEDO LISTA LA CONVERSION DE BINARIO A BCD REGRESO CON VALORES
                             EN REGISTROS AUXILIARES        
                      00051 ;***************************************************************************************************
                      00052 ;******************* RUTINAS ESPECIALES PARA CONVERSIÓN BINARIO A BCD ******************************
                      00053 ;***************************************************************************************************
0007FC                00054 CONVERSION_BCD
0007FC 6E0F           00055         MOVWF   AUXILIAR                        ; MOVEMOS EL VALOR QUE VIENE EN W AL REGISTRO AUXILIAR
0007FE 6A0C           00056         CLRF    AUX_UNIDADES            ; LIMPIAMOS NUESTROS AUXILIARES 
000800 6A0D           00057         CLRF    AUX_DECENAS                     ; LIMPIAMOS NUESTROS AUXILIARES
000802 6A0E           00058         CLRF    AUX_CENTENAS            ; LIMPIAMOS NUESTROS AUXILIARES
000804                00059 S_CENTENAS
000804 0E64           00060         MOVLW   .100                            ; CARGAMOS UN 100 A W
000806 5C0F           00061         SUBWF   AUXILIAR,W                      ; LE RESTAMOS A NUESTRO VALOR PRINCIPAL 
000808 B0D8           00062         BTFSC   STATUS,C                        ; PREGUNTAMOS SI ES MAYOR O MENOR
00080A EF?? F???      00063         GOTO    SUMA_CENTENAS           ; SI NO ES MENOR PROCEDEMOS A SUMAR CENTENAS
00080E EF?? F???      00064         GOTO    S_DECENAS                       ; SI ES MENOR VAMOS A SUMAR DECENAS
000812                00065 SUMA_CENTENAS
000812 6E0F           00066         MOVWF   AUXILIAR                        ; EL RESULTADO LO ACTUALIZAMOS EN W
000814 2A0E           00067         INCF    AUX_CENTENAS,F          ; INCREMENTAMOS EL REGISTRO DE CENTENAS EN 1
000816 EF?? F???      00068         GOTO    S_CENTENAS                      ; REGRESAMOS A LA ETIQUETA S_CENTENAS
00081A                00069 S_DECENAS
00081A 0E0A           00070         MOVLW   .10                                     ; CARGAMOS EL VALOR 10 A W
00081C 5C0F           00071         SUBWF   AUXILIAR,W                      ; PARA RESTARLO A NUESTRO VALOR PRINCIPAL
00081E B0D8           00072         BTFSC   STATUS,C                        ; PREGUNTAMOS SI ES MAYOR O MENOR
000820 EF?? F???      00073         GOTO    SUMA_DECENAS            ; SI FUE MAYOR EL NUMERO VAMOS A SUMAR DECENAS
000824 EF?? F???      00074         GOTO    SUMA_UNIDADES           ; SI ES MENOR VAMOS A SUMAR UNIDADES
000828                00075 SUMA_DECENAS
000828 6E0F           00076         MOVWF   AUXILIAR                        ; AUCTUALIZAMOS LA VARIABLE AUXILIAR
00082A 2A0D           00077         INCF    AUX_DECENAS,1           ; INCREMENTAMOS EN 1 AL REGISTRO DECENAS
00082C EF?? F???      00078         GOTO    S_DECENAS                       ; REGRESAMOS A ETIQUETA DE S_DECENAS
000830                00079 SUMA_UNIDADES   
000830 500F           00080         MOVF    AUXILIAR,W              ; EN UNIDADES EL RESIDUO DE LAS OPERACIONES ES CARGADO A AUX_UNI
                            DADES
000832 6E0C           00081         MOVWF   AUX_UNIDADES            ; AUN SI ES CERO
000834 0E30           00082         MOVLW   B'00110000'             ; CARGAMOS EL VALOR PARA PODER VISUALIZARLO EN ASCCI
000836 260C           00083         ADDWF   AUX_UNIDADES,F          ; SE LO SUMO A UNIDADES
000838 260D           00084         ADDWF   AUX_DECENAS,F           ; SE LO SUMO A CENTENAS 
00083A 260E           00085         ADDWF   AUX_CENTENAS,F          ; SE LO SUMO A DECENAS
00083C 0012           00086         RETURN                                          ; QUEDO LISTA LA CONVERSION DE BINARIO A BCD REG
                            RESO CON VALORES EN REGISTROS AUXILIARES
00083E                00087 INI_LCD
00083E 968B           00088     BCF         RE                      ; DESHABILITAMOS PIN 
000840 948B           00089     BCF         RS                      ; ACTIVAMOS MODO COMANDO PONIENDO RS EN 0
000842 EC?? F???      00090     CALL        RET_10ms                ; RETARDO PARA ESTABILIZACIÓN LCD
MPASM 5.87                   MAINLCDMENU.ASM   2-27-2022  1:30:58         PAGE 20


LOC  OBJECT CODE     LINE SOURCE TEXT
  VALUE

000846 0E30           00091     MOVLW       B'00110000'             ;
000848 EC?? F???      00092     CALL        LCD_WRITE               ; ESCRIBIMOS DATO EN LCD
00084C EC?? F???      00093     CALL        RET_5ms
000850 EC?? F???      00094     CALL        RET_1ms 
000854 0E30           00095     MOVLW       B'00110000'     
000856 EC?? F???      00096     CALL        LCD_WRITE
00085A EC?? F???      00097     CALL        RET_100us
00085E 0E30           00098     MOVLW       B'00110000'     
000860 EC?? F???      00099     CALL        LCD_WRITE
000864 EC?? F???      00100     CALL        RET_100us               ; Este retardo es necesario para simular en PROTEUS.
000868 0E20           00101     MOVLW       B'00100000'             ; Interface de 4 bits.
00086A EC?? F???      00102     CALL        LCD_WRITE
00086E EC?? F???      00103     CALL        RET_100us               ; Este retardo es necesario para simular en PROTEUS.
000872 EC?? F???      00104     CALL        LCD_2Lineas4Bits5x7     ; LCD de 2 líneas y caracteres de 5x7 puntos.
000876 EC?? F???      00105     CALL        LCD_CLEAR               ; Pantalla encendida y limpia. Cursor al principio
00087A EC?? F???      00106     CALL        LCD_C_OFF               ; de la línea 1. Cursor apagado.
00087E EC?? F???      00107     CALL        LCD_CursorIncr          ; Cursor en modo incrementar.
000882 0012           00108     RETURN
000884                00109 LCD_WRITE
000884 0BF0           00110     ANDLW       B'11110000'             ; Se queda con el nibble alto del dato que es el
000886 6E08           00111     MOVWF       LCD_DATO                ; que hay que enviar y lo guarda.
000888 508B           00112     MOVF        LCD_BUS,W               ; Lee la información actual de la parte baja
00088A 0B0F           00113     ANDLW       B'00001111'             ; del Puerto B, que no se debe alterar.
00088C 1208           00114     IORWF       LCD_DATO,F              ; Enviará la parte alta del dato de entrada
00088E 5008           00115     MOVF        LCD_DATO,W              ; Recupera el dato a enviar.
000890 6E8B           00116     MOVWF       LCD_BUS                 ; Envía el dato al módulo LCD.
000892 868B           00117     BSF         RE                      ; Permite funcionamiento del LCD mediante un pequeño
000894 968B           00118     BCF         RE                      ; pulso y termina impidiendo el funcionamiento del LC
000896 0012           00119     RETURN
000898                00120 LCD_CursorIncr                          ; Cursor en modo incrementar.
000898 0E06           00121     MOVLW       B'00000110'
00089A D???           00122     BRA         LCD_CMD
00089C                00123 LCD_CTMP
00089C 0EC8           00124     MOVLW       B'11001000'
00089E D???           00125     BRA         LCD_CMD
0008A0                00126 LCD_L1MENU
0008A0 0E81           00127     MOVLW       B'10000001'             ;POSICION MENU 1
0008A2 D???           00128     BRA         LCD_CMD
0008A4                00129 LCD_L2MENU
0008A4 0EC1           00130     MOVLW       B'11000001'             ;POSICION MENU 1
0008A6 D???           00131     BRA         LCD_CMD
0008A8                00132 LCD_L1                                                  ; Cursor al principio de la Línea 1.
0008A8 0E80           00133     MOVLW       B'10000000'                             ; Dirección 00h de la DDRAM
0008AA D???           00134     BRA         LCD_CMD
0008AC                00135 LCD_L2                                                  ; Cursor al principio de la Línea 2.
0008AC 0EC0           00136     MOVLW       B'11000000'                             ; Dirección 40h de la DDRAM
0008AE D???           00137     BRA         LCD_CMD
0008B0                00138 LCD_L3                                                  ; Cursor al principio de la Línea 3
0008B0 0E94           00139     MOVLW       B'10010100'                             ; Dirección 14h de la DDRAM
0008B2 D???           00140     BRA         LCD_CMD
0008B4                00141 LCD_L3.2                                                ; Cursor al principio de la Línea 3
0008B4 0E95           00142     MOVLW       B'10010101'                             ; Dirección 15h de la DDRAM
0008B6 D???           00143     BRA         LCD_CMD
MPASM 5.87                   MAINLCDMENU.ASM   2-27-2022  1:30:58         PAGE 21


LOC  OBJECT CODE     LINE SOURCE TEXT
  VALUE

0008B8                00144 LCD_L3.3                                                ; Cursor al principio de la Línea 3
0008B8 0E96           00145     MOVLW       B'10010110'                             ; Dirección 15h de la DDRAM
0008BA D???           00146     BRA         LCD_CMD
0008BC                00147 LCD_L3.4                                                ; Cursor al principio de la Línea 3
0008BC 0E97           00148     MOVLW       B'10010111'                             ; Dirección 15h de la DDRAM
0008BE D???           00149     BRA         LCD_CMD
0008C0                00150 LCD_L3.5                                                ; Cursor al principio de la Línea 3
0008C0 0E98           00151     MOVLW       B'10011000'                             ; Dirección 15h de la DDRAM
0008C2 D???           00152     BRA         LCD_CMD
0008C4                00153 LCD_L3.6                                                ; Cursor al principio de la Línea 3
0008C4 0E99           00154     MOVLW       B'10011001'                             ; Dirección 15h de la DDRAM
0008C6 D???           00155     BRA         LCD_CMD
0008C8                00156 LCD_L3.7                                                ; Cursor al principio de la Línea 3
0008C8 0E9A           00157     MOVLW       B'10011010'                             ; Dirección 15h de la DDRAM
0008CA D???           00158     BRA         LCD_CMD
0008CC                00159 LCD_L3.8                                                ; Cursor al principio de la Línea 3
0008CC 0E9B           00160     MOVLW       B'10011011'                             ; Dirección 15h de la DDRAM
0008CE D???           00161     BRA         LCD_CMD
0008D0                00162 LCD_L3.9                                                ; Cursor al principio de la Línea 3
0008D0 0E9C           00163     MOVLW       B'10011100'                             ; Dirección 15h de la DDRAM
0008D2 D???           00164     BRA         LCD_CMD
0008D4                00165 LCD_L3.10                                               ; Cursor al principio de la Línea 3
0008D4 0E9D           00166     MOVLW       B'10011101'                             ; Dirección 15h de la DDRAM
0008D6 D???           00167     BRA         LCD_CMD
0008D8                00168 LCD_L3.11                                               ; Cursor al principio de la Línea 3
0008D8 0E9E           00169     MOVLW       B'10011110'                             ; Dirección 15h de la DDRAM
0008DA D???           00170     BRA         LCD_CMD
0008DC                00171 LCD_L3.12                                               ; Cursor al principio de la Línea 3
0008DC 0E9F           00172     MOVLW       B'10011111'                             ; Dirección 15h de la DDRAM
0008DE D???           00173     BRA         LCD_CMD
0008E0                00174 LCD_L3.13                                               ; Cursor al principio de la Línea 3
0008E0 0EA0           00175     MOVLW       B'10100000'                             ; Dirección 15h de la DDRAM
0008E2 D???           00176     BRA         LCD_CMD
0008E4                00177 LCD_L3.14                                               ; Cursor al principio de la Línea 3
0008E4 0EA1           00178     MOVLW       B'10100001'                             ; Dirección 15h de la DDRAM
0008E6 D???           00179     BRA         LCD_CMD
0008E8                00180 LCD_L3.15                                               ; Cursor al principio de la Línea 3
0008E8 0EA2           00181     MOVLW       B'10100010'                             ; Dirección 15h de la DDRAM
0008EA D???           00182     BRA         LCD_CMD
0008EC                00183 LCD_L3.16                                               ; Cursor al principio de la Línea 3
0008EC 0EA3           00184     MOVLW       B'10100011'                             ; Dirección 15h de la DDRAM
0008EE D???           00185     BRA         LCD_CMD
0008F0                00186 LCD_L3.17                                               ; Cursor al principio de la Línea 3
0008F0 0EA4           00187     MOVLW       B'10100100'                             ; Dirección 15h de la DDRAM
0008F2 D???           00188     BRA         LCD_CMD  
0008F4                00189 LCD_L3.18                                               ; Cursor al principio de la Línea 3
0008F4 0EA5           00190     MOVLW       B'10100101'                             ; Dirección 15h de la DDRAM
0008F6 D???           00191     BRA         LCD_CMD  
0008F8                00192 LCD_L3.19                                               ; Cursor al principio de la Línea 3
0008F8 0EA6           00193     MOVLW       B'10100110'                             ; Dirección 15h de la DDRAM
0008FA D???           00194     BRA         LCD_CMD  
0008FC                00195 LCD_L3.20                                               ; Cursor al principio de la Línea 3
0008FC 0EA7           00196     MOVLW       B'10100111'                             ; Dirección 15h de la DDRAM
MPASM 5.87                   MAINLCDMENU.ASM   2-27-2022  1:30:58         PAGE 22


LOC  OBJECT CODE     LINE SOURCE TEXT
  VALUE

0008FE D???           00197     BRA         LCD_CMD  
000900                00198 LCD_L4                                                  ; Cursor al principio de la Línea 4
000900 0ED4           00199     MOVLW       B'11010100'                             ; Dirección 54h de la DDRAM
000902 D???           00200     BRA         LCD_CMD
000904                00201 LCD_L4.2
000904 0ED5           00202     MOVLW       B'11010101'                             ; Dirección 54h de la DDRAM
000906 D???           00203     BRA         LCD_CMD    
000908                00204 LCD_L4.3
000908 0ED6           00205     MOVLW       B'11010110'                             ; Dirección 54h de la DDRAM
00090A D???           00206     BRA         LCD_CMD    
00090C                00207 LCD_L4.4
00090C 0ED7           00208     MOVLW       B'11010111'                             ; Dirección 54h de la DDRAM
00090E D???           00209     BRA         LCD_CMD    
000910                00210 LCD_L4.5
000910 0ED8           00211     MOVLW       B'11011000'                             ; Dirección 54h de la DDRAM
000912 D???           00212     BRA         LCD_CMD   
000914                00213 LCD_L4.6
000914 0ED9           00214     MOVLW       B'11011001'                             ; Dirección 54h de la DDRAM
000916 D???           00215     BRA         LCD_CMD   
000918                00216 LCD_L4.7
000918 0EDA           00217     MOVLW       B'11011010'                             ; Dirección 54h de la DDRAM
00091A D???           00218     BRA         LCD_CMD   
00091C                00219 LCD_L4.8
00091C 0EDB           00220     MOVLW       B'11011011'                             ; Dirección 54h de la DDRAM
00091E D???           00221     BRA         LCD_CMD   
000920                00222 LCD_L4.9
000920 0EDC           00223     MOVLW       B'11011100'                             ; Dirección 54h de la DDRAM
000922 D???           00224     BRA         LCD_CMD   
000924                00225 LCD_L4.10
000924 0EDD           00226     MOVLW       B'11011101'                             ; Dirección 54h de la DDRAM
000926 D???           00227     BRA         LCD_CMD   
000928                00228 LCD_L4.11
000928 0EDE           00229     MOVLW       B'11011110'                             ; Dirección 54h de la DDRAM
00092A D???           00230     BRA         LCD_CMD   
00092C                00231 LCD_L4.12
00092C 0EDF           00232     MOVLW       B'11011111'                             ; Dirección 54h de la DDRAM
00092E D???           00233     BRA         LCD_CMD      
000930                00234 LCD_L4.13
000930 0EE0           00235     MOVLW       B'11100000'                             ; Dirección 54h de la DDRAM
000932 D???           00236     BRA         LCD_CMD  
000934                00237 LCD_L4.14
000934 0EE1           00238     MOVLW       B'11100001'                             ; Dirección 54h de la DDRAM
000936 D???           00239     BRA         LCD_CMD  
000938                00240 LCD_L4.15
000938 0EE2           00241     MOVLW       B'11100010'                             ; Dirección 54h de la DDRAM
00093A D???           00242     BRA         LCD_CMD  
00093C                00243 LCD_L4.16
00093C 0EE3           00244     MOVLW       B'11100011'                             ; Dirección 54h de la DDRAM
00093E D???           00245     BRA         LCD_CMD  
000940                00246 LCD_L4.17
000940 0EE4           00247     MOVLW       B'11100100'                             ; Dirección 54h de la DDRAM
000942 D???           00248     BRA         LCD_CMD  
000944                00249 LCD_L4.18
MPASM 5.87                   MAINLCDMENU.ASM   2-27-2022  1:30:58         PAGE 23


LOC  OBJECT CODE     LINE SOURCE TEXT
  VALUE

000944 0EE5           00250     MOVLW       B'11100101'                             ; Dirección 54h de la DDRAM
000946 D???           00251     BRA         LCD_CMD     
000948                00252 LCD_L4.19
000948 0EE6           00253     MOVLW       B'11100110'                             ; Dirección 54h de la DDRAM
00094A D???           00254     BRA         LCD_CMD     
00094C                00255 LCD_L4.20
00094C 0EE7           00256     MOVLW       B'11100111'                             ; Dirección 54h de la DDRAM
00094E D???           00257     BRA         LCD_CMD  
                      00258     
000950                00259 LCD_PosicionLinea1                                      ; Cursor a posición de la Línea 1, a partir de l
                            a
000950 0980           00260     IORLW       b'10000000'                             ; dirección 00h de la DDRAM más el valor del
000952 D???           00261     BRA         LCD_CMD         ; registro W.
000954                00262 LCD_PosicionLinea2                                      ; Cursor a posición de la Línea 2, a partir de l
                            a
000954 09C0           00263     IORLW       b'11000000'                             ; dirección 40h de la DDRAM más el valor del
000956 D???           00264     BRA         LCD_CMD         ; registro W.
000958                00265 LCD_OFF                                                         ; Pantalla apagada.
000958 0E08           00266     MOVLW       B'00001000'
00095A D???           00267     BRA         LCD_CMD
00095C                00268 LCD_C_ON                                                ; Pantalla encendida y cursor encendido.
00095C 0E0E           00269     MOVLW       B'00001110'
00095E D???           00270     BRA         LCD_CMD
000960                00271 LCD_C_OFF                                               ; Pantalla encendida y cursor apagado.
000960 0E0C           00272     MOVLW       B'00001100'
000962 D???           00273     BRA         LCD_CMD
000964                00274 LCD_CLEAR                                                       ; Borra toda la pantalla, memoria DDRAM 
                            y pone el 
000964 0E01           00275     MOVLW       B'00000001'                             ; cursor a principio de la línea 1.
000966 D???           00276     BRA         LCD_CMD
000968                00277 LCD_2Lineas4Bits5x7                                     ; Define la pantalla de 2 líneas, con caracteres
000968 0E28           00278     MOVLW       B'00101000'                             ; de 5x7 puntos y conexión al PIC mediante bus d
                            e
00096A                00279 LCD_CMD
00096A 948B           00280     BCF RS                              ; Activa el Modo Comando, poniendo RS=0.
00096C D???           00281     BRA LCD_Envia
00096E                00282 SET_CURSOR
00096E D???           00283     BRA         LCD_CMD
000970                00284 LCD_CURSOR_BON
000970 0E0F           00285     MOVLW       B'00001111'
000972 D???           00286     BRA         LCD_CMD
000974                00287 ENVIAR_DATO
000974 848B           00288     BSF RS                                      ; Activa el "Modo Dato", poniendo RS=1.
000976 EC?? F???      00289     CALL        LCD_CodigoCGROM                 ; Obtiene el código para correcta visualización.
00097A                00290 LCD_Envia
00097A 6E09           00291     MOVWF       LCD_GuardaDato                  ; Guarda el dato a enviar.
00097C EC?? F???      00292     CALL        LCD_WRITE                       ; Primero envía el nibble alto.
000980 3809           00293     SWAPF       LCD_GuardaDato,W                ; Ahora envía el nibble bajo. Para ello pasa el
                      00294                                                 ; nibble bajo del dato a enviar a parte alta del byte.
000982 EC?? F???      00295     CALL        LCD_WRITE                       ; Se envía al visualizador LCD.
000986 A48B           00296     BTFSS       RS                              ; Debe garantizar una correcta escritura manteniendo 
000988 EC?? F???      00297     CALL        RET_1ms                         ; 2 ms en modo comando y 50 µs en modo cáracter.
00098C EC?? F???      00298     CALL        RET_1ms
MPASM 5.87                   MAINLCDMENU.ASM   2-27-2022  1:30:58         PAGE 24


LOC  OBJECT CODE     LINE SOURCE TEXT
  VALUE

000990 0012           00299     RETURN      
000992                00300 LCD_CodigoCGROM
000992 6E08           00301     MOVWF       LCD_DATO                                ; Guarda el valor del carácter y comprueba si es
000994                00302 LCD_EnheMinuscula                                       ; un carácter especial.
000994 08F1           00303     SUBLW       'ñ'                                     ; ¿Es la "ñ"?
000996 A4D8           00304     BTFSS       STATUS,Z
000998 EF?? F???      00305     GOTO        LCD_EnheMayuscula               ; No es "ñ".
00099C 0EEE           00306     MOVLW       B'11101110'                             ; Código CGROM de la "ñ".
00099E 6E08           00307     MOVWF       LCD_DATO
0009A0 EF?? F???      00308     GOTO        LCD_FinCGROM
0009A4                00309 LCD_EnheMayuscula
0009A4 5008           00310     MOVF        LCD_DATO,W                              ; Recupera el código ASCII de entrada.
0009A6 08D1           00311     SUBLW       'Ñ'                                     ; ¿Es la "Ñ"?
0009A8 A4D8           00312     BTFSS       STATUS,Z
0009AA EF?? F???      00313     GOTO        LCD_Grado                               ; No es "Ñ".
0009AE 0EEE           00314     MOVLW       b'11101110'                             ; Código CGROM de la "ñ". (No hay símbolo para
0009B0 6E08           00315     MOVWF       LCD_DATO                                ; la "Ñ" mayúscula en la CGROM).
0009B2 EF?? F???      00316     GOTO        LCD_FinCGROM    
0009B6                00317 LCD_Grado
0009B6 5008           00318     MOVF    LCD_DATO,W                          ; Recupera el código ASCII de entrada.
0009B8 08BA           00319     SUBLW       'º'                                     ; ¿Es el símbolo "º"?
0009BA A4D8           00320     BTFSS   STATUS,Z
0009BC EF?? F???      00321     GOTO    LCD_FinCGROM                        ; No es "º".
0009C0 0EDF           00322     MOVLW   b'11011111'                         ; Código CGROM del símbolo "º".
0009C2 6E08           00323     MOVWF   LCD_DATO
0009C4                00324 LCD_FinCGROM
0009C4 5008           00325     MOVF        LCD_DATO,W                              ; En (W) el código buscado.
0009C6 0012           00326     RETURN
                      00327     
0009C8                00328 LCD_CLEAR_L1
0009C8 EC?? F???      00329     CALL    LCD_L1
0009CC EC?? F???      00330     CALL    LCD_LINEA_CLEAR
0009D0 0012           00331     RETURN
0009D2                00332 LCD_CLEAR_L2
0009D2 EC?? F???      00333     CALL    LCD_L2
0009D6 EC?? F???      00334     CALL    LCD_LINEA_CLEAR
0009DA 0012           00335     RETURN
0009DC                00336 LCD_CLEAR_L3
0009DC EC?? F???      00337     CALL    LCD_L3
0009E0 EC?? F???      00338     CALL    LCD_LINEA_CLEAR
0009E4 0012           00339     RETURN
0009E6                00340 LCD_CLEAR_L4
0009E6 EC?? F???      00341     CALL    LCD_L4
0009EA EC?? F???      00342     CALL    LCD_LINEA_CLEAR
0009EE 0012           00343     RETURN    
0009F0                00344 LCD_LINEA_CLEAR
0009F0 0E14           00345     MOVLW   CHAR_X_LINEA
0009F2 6E0A           00346     MOVWF   LCD_Auxiliar1                       ; (LCD_Auxiliar1) se utiliza como contador.
0009F4                00347 LCD_SEND_WHITE  
0009F4 0E20           00348     MOVLW       ' '                                             ; Esto es un espacio en blanco.
0009F6 EC?? F???      00349     CALL        ENVIAR_DATO
0009FA 2E0A           00350     DECFSZ      LCD_Auxiliar1,F                 ; haya cargado en (LCD_Auxiliar1).
0009FC EF?? F???      00351     GOTO        LCD_SEND_WHITE
MPASM 5.87                   MAINLCDMENU.ASM   2-27-2022  1:30:58         PAGE 25


LOC  OBJECT CODE     LINE SOURCE TEXT
  VALUE

000A00 0012           00352     RETURN
                      00353 
                      00354 ; Subrutinas "LCD_ByteCompleto" y "LCD_Byte" --------------------------------------------
                      00355 ;
                      00356 ; Subrutina "LCD_ByteCompleto", visualiza el byte que almacena el registro W en el
                      00357 ; lugar actual de la pantalla. Por ejemplo, si (W)=b'10101110' visualiza "AE".
                      00358 ;
                      00359 ; Subrutina "LCD_Byte" igual que la anterior, pero en caso de que el nibble alto sea cero 
                      00360 ; visualiza en su lugar un espacio en blanco. Por ejemplo si (W)=b'10101110' visualiza "AE"
                      00361 ; y si (W)=b'00001110', visualiza " E" (un espacio blanco delante).
                      00362 ;
                      00363 ; Utilizan la subrutina "LCD_Nibble" que se analiza más adelante.
000A02                00364 LCD_Byte
000A02 6E0B           00365         movwf   LCD_Auxiliar2                   ; Guarda el valor de entrada.
000A04 0BF0           00366         andlw   b'11110000'                             ; Analiza si el nibble alto es cero.
000A06 A4D8           00367         btfss   STATUS,Z                                ; Si es cero lo apaga.
000A08 EF?? F???      00368         goto    LCD_VisualizaAlto               ; No es cero y lo visualiza.
000A0C 0E20           00369         movlw   ' '                                             ; Visualiza un espacio en blanco.
000A0E EC04 F000      00370         call    LCD_DATO
000A12 EF?? F???      00371         goto    LCD_VisualizaBajo
                      00372 
000A16                00373 LCD_ByteCompleto
000A16 6E0B           00374         movwf   LCD_Auxiliar2                   ; Guarda el valor de entrada.
000A18                00375 LCD_VisualizaAlto
000A18 380B           00376         swapf   LCD_Auxiliar2,W                 ; Pone el nibble alto en la parte baja.
000A1A EC?? F???      00377         call    LCD_Nibble                              ; Lo visualiza.
000A1E                00378 LCD_VisualizaBajo
000A1E 500B           00379         movf    LCD_Auxiliar2,W                 ; Repite el proceso con el nibble bajo.
000A20                00380 LCD_Nibble
000A20 0B0F           00381         andlw   b'00001111'                             ; Se queda con la parte baja.
000A22 6E0A           00382         movwf   LCD_Auxiliar1                   ; Lo guarda.
000A24 0809           00383         sublw   0x09                                    ; Comprueba si hay que representarlo con letra.
000A26 A0D8           00384         btfss   STATUS,C        
000A28 EF?? F???      00385         goto    LCD_EnviaByteLetra
000A2C 500A           00386         movf    LCD_Auxiliar1,W
000A2E 0F30           00387         addlw   '0'                                             ; El número se pasa a carácter ASCII sum
                            ándole
000A30 EF?? F???      00388         goto    LCD_FinVisualizaDigito  ; el ASCII del cero y lo visualiza.
000A34                00389 LCD_EnviaByteLetra
000A34 500A           00390         movf    LCD_Auxiliar1,W
000A36 0F37           00391         addlw   'A'-0x0A                                ; Sí, por tanto, se le suma el ASCII de la 'A'.
000A38                00392 LCD_FinVisualizaDigito
000A38 EF04 F000      00393         goto    LCD_DATO                        ; Y visualiza el carácter. Se hace con un "goto"
                      00394                                                                         ; para no sobrecargar la pila.
                      00395 
                      00396 
                      00397 
                      00398 
                      00399 
                      00400 
                      00401 
                      00402 
                      00403 
MPASM 5.87                   MAINLCDMENU.ASM   2-27-2022  1:30:58         PAGE 26


LOC  OBJECT CODE     LINE SOURCE TEXT
  VALUE

                      00404 
                      00405 
                      00715 
                      00716         END     
MPASM 5.87                   MAINLCDMENU.ASM   2-27-2022  1:30:58         PAGE 27


SYMBOL TABLE
  LABEL                             VALUE 

A                                 00000000
ABDEN                             00000000
ABDOVF                            00000007
ACCESS                            00000000
ACKDT                             00000005
ACKEN                             00000004
ACKSTAT                           00000006
ACKTIM                            00000007
ACQT0                             00000003
ACQT1                             00000004
ACQT2                             00000005
ADCMD                             00000000
ADCON0                            00000FC2
ADCON1                            00000FC1
ADCON2                            00000FC0
ADCS0                             00000000
ADCS1                             00000001
ADCS2                             00000002
ADDEN                             00000003
ADDEN1                            00000003
ADDEN2                            00000003
ADEN                              00000003
ADFM                              00000007
ADIE                              00000006
ADIF                              00000006
ADIP                              00000006
ADON                              00000000
ADRES                             00000FC3
ADRESH                            00000FC4
ADRESL                            00000FC3
AHEN                              00000001
ALTA_PRIORIDAD                    0000002E
AN0                               00000000
AN1                               00000001
AN10                              00000001
AN11                              00000004
AN12                              00000000
AN13                              00000005
AN14                              00000002
AN15                              00000003
AN16                              00000004
AN17                              00000005
AN18                              00000006
AN19                              00000007
AN2                               00000002
AN3                               00000003
AN4                               00000005
AN8                               00000002
AN9                               00000003
ANSA0                             00000000
ANSA1                             00000001
ANSA2                             00000002
ANSA3                             00000003
MPASM 5.87                   MAINLCDMENU.ASM   2-27-2022  1:30:58         PAGE 28


SYMBOL TABLE
  LABEL                             VALUE 

ANSA5                             00000005
ANSB0                             00000000
ANSB1                             00000001
ANSB2                             00000002
ANSB3                             00000003
ANSB4                             00000004
ANSB5                             00000005
ANSC2                             00000002
ANSC3                             00000003
ANSC4                             00000004
ANSC5                             00000005
ANSC6                             00000006
ANSC7                             00000007
ANSELA                            00000F38
ANSELB                            00000F39
ANSELC                            00000F3A
AUXILIAR                          0000000F
AUX_CENTENAS                      0000000E
AUX_DECENAS                       0000000D
AUX_UNIDADES                      0000000C
BACK                              PORTA,3
BAJA_PRIORIDAD                    00000018
BANKED                            00000001
BAUD1CON                          00000FB8
BAUD2CON                          00000F70
BAUDCON                           00000FB8
BAUDCON1                          00000FB8
BAUDCON2                          00000F70
BAUDCTL                           00000FB8
BCL1IE                            00000003
BCL1IF                            00000003
BCL1IP                            00000003
BCL2IE                            00000006
BCL2IF                            00000006
BCL2IP                            00000006
BCLIE                             00000003
BCLIF                             00000003
BCLIP                             00000003
BF                                00000000
BGST                              00000005
BGVST                             00000006
BOEN                              00000004
BOR                               00000000
BRG16                             00000003
BRGH                              00000002
BRGH1                             00000002
BRGH2                             00000002
BSR                               00000FE0
BSR_TEMP                          00000002
BSUMA_CENTENAS                    000007D8
BSUMA_DECENAS                     000007EE
BSUMA_UNIDADES                    000007F6
BS_CENTENAS                       000007CA
MPASM 5.87                   MAINLCDMENU.ASM   2-27-2022  1:30:58         PAGE 29


SYMBOL TABLE
  LABEL                             VALUE 

BS_DECENAS                        000007E0
C                                 00000000
C12IN0M                           00000000
C12IN0N                           00000000
C12IN1M                           00000001
C12IN1N                           00000001
C12IN2M                           00000003
C12IN2N                           00000003
C12IN3M                           00000001
C12IN3N                           00000001
C1CH0                             00000000
C1CH1                             00000001
C1HYS                             00000003
C1IE                              00000006
C1IF                              00000006
C1INP                             00000003
C1IP                              00000006
C1OE                              00000005
C1ON                              00000007
C1OUT_CM1CON                      00000006
C1OUT_CM1CON0                     00000006
C1OUT_PORTA                       00000004
C1POL                             00000004
C1R                               00000002
C1RSEL                            00000005
C1SP                              00000003
C1SYNC                            00000001
C1TSEL0                           00000000
C1TSEL1                           00000001
C2CH0                             00000000
C2CH1                             00000001
C2HYS                             00000002
C2IE                              00000005
C2IF                              00000005
C2INP                             00000002
C2IP                              00000005
C2OE                              00000005
C2ON                              00000007
C2OUT_CM2CON                      00000006
C2OUT_CM2CON0                     00000006
C2OUT_PORTA                       00000005
C2POL                             00000004
C2R                               00000002
C2RSEL                            00000004
C2SP                              00000003
C2SYNC                            00000000
C2TSEL0                           00000003
C2TSEL1                           00000004
C3TSEL0                           00000006
C3TSEL1                           00000007
C4TSEL0                           00000000
C4TSEL1                           00000001
C5TSEL0                           00000002
MPASM 5.87                   MAINLCDMENU.ASM   2-27-2022  1:30:58         PAGE 30


SYMBOL TABLE
  LABEL                             VALUE 

C5TSEL1                           00000003
CAMBIA_DPC                        000003E0
CAMBIA_UPC                        000003FA
CCP1                              00000002
CCP1AS0                           00000004
CCP1AS1                           00000005
CCP1AS2                           00000006
CCP1ASE                           00000007
CCP1CON                           00000FBD
CCP1IE                            00000002
CCP1IF                            00000002
CCP1IP                            00000002
CCP1M0                            00000000
CCP1M1                            00000001
CCP1M2                            00000002
CCP1M3                            00000003
CCP1MD                            00000000
CCP2AS                            00000F64
CCP2AS0                           00000004
CCP2AS1                           00000005
CCP2AS2                           00000006
CCP2ASE                           00000007
CCP2CON                           00000F66
CCP2IE                            00000000
CCP2IF                            00000000
CCP2IP                            00000000
CCP2M0                            00000000
CCP2M1                            00000001
CCP2M2                            00000002
CCP2M3                            00000003
CCP2MD                            00000001
CCP2_PORTB                        00000003
CCP2_PORTC                        00000001
CCP3AS                            00000F5B
CCP3AS0                           00000004
CCP3AS1                           00000005
CCP3AS2                           00000006
CCP3ASE                           00000007
CCP3CON                           00000F5D
CCP3IE                            00000000
CCP3IF                            00000000
CCP3IP                            00000000
CCP3M0                            00000000
CCP3M1                            00000001
CCP3M2                            00000002
CCP3M3                            00000003
CCP3MD                            00000002
CCP3_PORTB                        00000005
CCP3_PORTC                        00000006
CCP4                              00000000
CCP4CON                           00000F57
CCP4IE                            00000001
CCP4IF                            00000001
MPASM 5.87                   MAINLCDMENU.ASM   2-27-2022  1:30:58         PAGE 31


SYMBOL TABLE
  LABEL                             VALUE 

CCP4IP                            00000001
CCP4M0                            00000000
CCP4M1                            00000001
CCP4M2                            00000002
CCP4M3                            00000003
CCP4MD                            00000003
CCP5                              00000004
CCP5CON                           00000F54
CCP5IE                            00000002
CCP5IF                            00000002
CCP5IP                            00000002
CCP5M0                            00000000
CCP5M1                            00000001
CCP5M2                            00000002
CCP5M3                            00000003
CCP5MD                            00000004
CCPR1                             00000FBE
CCPR1H                            00000FBF
CCPR1L                            00000FBE
CCPR2                             00000F67
CCPR2H                            00000F68
CCPR2L                            00000F67
CCPR3                             00000F5E
CCPR3H                            00000F5F
CCPR3L                            00000F5E
CCPR4                             00000F58
CCPR4H                            00000F59
CCPR4L                            00000F58
CCPR5                             00000F55
CCPR5H                            00000F56
CCPR5L                            00000F55
CCPTMRS0                          00000F49
CCPTMRS1                          00000F48
CFGS                              00000006
CHAR_X_LINEA                      00000014
CHS0                              00000002
CHS1                              00000003
CHS2                              00000004
CHS3                              00000005
CHS4                              00000006
CICLO_RETARDO                     000007B6
CK                                00000006
CK1                               00000006
CK2                               00000006
CKE                               00000006
CKP                               00000004
CKTXP                             00000004
CM12CON                           00000F77
CM1CON                            00000F79
CM1CON0                           00000F79
CM2CON                            00000F78
CM2CON0                           00000F78
CM2CON1                           00000F77
MPASM 5.87                   MAINLCDMENU.ASM   2-27-2022  1:30:58         PAGE 32


SYMBOL TABLE
  LABEL                             VALUE 

CMP1MD                            00000001
CMP2MD                            00000002
CONVERSION_BCD                    000007FC
CONVERSION_BIN                    000007C2
CREN                              00000004
CREN1                             00000004
CREN2                             00000004
CSRC                              00000007
CSRC1                             00000007
CSRC2                             00000007
CTED1                             00000002
CTED2                             00000003
CTMUCON0                          00000F45
CTMUCON1                          00000F44
CTMUCONH                          00000F45
CTMUCONL                          00000F44
CTMUEN                            00000007
CTMUICON                          00000F43
CTMUICONH                         00000F43
CTMUIE                            00000003
CTMUIF                            00000003
CTMUIP                            00000003
CTMUMD                            00000003
CTMUSIDL                          00000005
CTPLS                             00000002
CTTRIG                            00000000
CURSOR                            00000006
CURSOR1V                          0000043C
CURSOR2V                          00000466
CVREF                             00000002
D                                 00000005
DACCON0                           00000F41
DACCON1                           00000F40
DACEN                             00000007
DACLPS                            00000006
DACNSS                            00000000
DACOE                             00000005
DACOUT                            00000002
DACPSS0                           00000002
DACPSS1                           00000003
DACR0                             00000000
DACR1                             00000001
DACR2                             00000002
DACR3                             00000003
DACR4                             00000004
DC                                00000001
DC1B0                             00000004
DC1B1                             00000005
DC2B0                             00000004
DC2B1                             00000005
DC3B0                             00000004
DC3B1                             00000005
DC4B0                             00000004
MPASM 5.87                   MAINLCDMENU.ASM   2-27-2022  1:30:58         PAGE 33


SYMBOL TABLE
  LABEL                             VALUE 

DC4B1                             00000005
DC5B0                             00000004
DC5B1                             00000005
DDRA                              TRISA
DDRB                              TRISB
DDRC                              TRISC
DDRD                              TRISD
DDRE                              TRISE
DECREMENTO                        PORTA,1
DHEN                              00000000
DONE                              00000001
DT1                               00000007
DT2                               00000007
DTRXP                             00000005
D_A                               00000005
D_NOT_A                           00000005
ECCP1AS                           00000FB6
ECCP2AS                           00000F64
ECCP3AS                           00000F5B
ECCPAS                            00000FB6
ECCPAS0                           00000004
ECCPAS1                           00000005
ECCPAS2                           00000006
ECCPASE                           00000007
EDG1POL                           00000004
EDG1SEL0                          00000002
EDG1SEL1                          00000003
EDG1STAT                          00000000
EDG2POL                           00000007
EDG2SEL0                          00000005
EDG2SEL1                          00000006
EDG2STAT                          00000001
EDGEN                             00000003
EDGSEQEN                          00000002
EEADR                             00000FA9
EEADR0                            00000000
EEADR1                            00000001
EEADR2                            00000002
EEADR3                            00000003
EEADR4                            00000004
EEADR5                            00000005
EEADR6                            00000006
EEADR7                            00000007
EEADR8                            00000000
EEADR9                            00000001
EEADRH                            00000FAA
EECON1                            00000FA6
EECON2                            00000FA7
EEDATA                            00000FA8
EEIE                              00000004
EEIF                              00000004
EEIP                              00000004
EEPGD                             00000007
MPASM 5.87                   MAINLCDMENU.ASM   2-27-2022  1:30:58         PAGE 34


SYMBOL TABLE
  LABEL                             VALUE 

ENVIAR_DATO                       00000974
FAST                              00000001
FERR                              00000002
FERR1                             00000002
FERR2                             00000002
FIN_INTER                         00000022
FLECHA                            0000007E
FLT0                              00000000
FREE                              00000004
FSR0                              00000000
FSR0H                             00000FEA
FSR0L                             00000FE9
FSR1                              00000001
FSR1H                             00000FE2
FSR1L                             00000FE1
FSR2                              00000002
FSR2H                             00000FDA
FSR2L                             00000FD9
FVRCON                            00000F42
FVREN                             00000007
FVRS0                             00000004
FVRS1                             00000005
FVRST                             00000006
GCEN                              00000007
GIE                               00000007
GIEH                              00000007
GIEL                              00000006
GIE_GIEH                          00000007
GO                                00000001
GO_DONE                           00000001
GO_NOT_DONE                       00000001
HFIOFS                            00000002
HLVDCON                           00000F9C
HLVDEN                            00000004
HLVDIE                            00000002
HLVDIF                            00000002
HLVDIN                            00000005
HLVDIP                            00000002
HLVDL0                            00000000
HLVDL1                            00000001
HLVDL2                            00000002
HLVDL3                            00000003
IDISSEN                           00000001
IDLEN                             00000007
INCREMENTO                        PORTA,0
INDF0                             00000FEF
INDF1                             00000FE7
INDF2                             00000FDF
INICIO                            00000032
INI_LCD                           0000083E
INT0                              00000000
INT0E                             00000004
INT0F                             00000001
MPASM 5.87                   MAINLCDMENU.ASM   2-27-2022  1:30:58         PAGE 35


SYMBOL TABLE
  LABEL                             VALUE 

INT0IE                            00000004
INT0IF                            00000001
INT1                              00000001
INT1E                             00000003
INT1F                             00000000
INT1IE                            00000003
INT1IF                            00000000
INT1IP                            00000006
INT1P                             00000006
INT2                              00000002
INT2E                             00000004
INT2F                             00000001
INT2IE                            00000004
INT2IF                            00000001
INT2IP                            00000007
INT2P                             00000007
INTCON                            00000FF2
INTCON2                           00000FF1
INTCON3                           00000FF0
INTEDG0                           00000006
INTEDG1                           00000005
INTEDG2                           00000004
INTRO                             PORTA,2
INTSRC                            00000007
IOCB                              00000F62
IOCB4                             00000004
IOCB5                             00000005
IOCB6                             00000006
IOCB7                             00000007
IOFS                              00000002
IPEN                              00000007
IPR1                              00000F9F
IPR2                              00000FA2
IPR3                              00000FA5
IPR4                              00000F7C
IPR5                              00000F7F
IRCF0                             00000004
IRCF1                             00000005
IRCF2                             00000006
IRNG0                             00000000
IRNG1                             00000001
IRVST                             00000005
ITRIM0                            00000002
ITRIM1                            00000003
ITRIM2                            00000004
ITRIM3                            00000005
ITRIM4                            00000006
ITRIM5                            00000007
IVRST                             00000005
KBI0                              00000004
KBI1                              00000005
KBI2                              00000006
KBI3                              00000007
MPASM 5.87                   MAINLCDMENU.ASM   2-27-2022  1:30:58         PAGE 36


SYMBOL TABLE
  LABEL                             VALUE 

LATA                              00000F89
LATA0                             00000000
LATA1                             00000001
LATA2                             00000002
LATA3                             00000003
LATA4                             00000004
LATA5                             00000005
LATA6                             00000006
LATA7                             00000007
LATB                              00000F8A
LATB0                             00000000
LATB1                             00000001
LATB2                             00000002
LATB3                             00000003
LATB4                             00000004
LATB5                             00000005
LATB6                             00000006
LATB7                             00000007
LATC                              00000F8B
LATC0                             00000000
LATC1                             00000001
LATC2                             00000002
LATC3                             00000003
LATC4                             00000004
LATC5                             00000005
LATC6                             00000006
LATC7                             00000007
LCD_2Lineas4Bits5x7               00000968
LCD_Auxiliar1                     0000000A
LCD_Auxiliar2                     0000000B
LCD_BUS                           LATC
LCD_Byte                          00000A02
LCD_ByteCompleto                  00000A16
LCD_CLEAR                         00000964
LCD_CLEAR_L1                      000009C8
LCD_CLEAR_L2                      000009D2
LCD_CLEAR_L3                      000009DC
LCD_CLEAR_L4                      000009E6
LCD_CMD                           0000096A
LCD_CTMP                          0000089C
LCD_CURSOR_BON                    00000970
LCD_C_OFF                         00000960
LCD_C_ON                          0000095C
LCD_CodigoCGROM                   00000992
LCD_CursorIncr                    00000898
LCD_DATO                          00000008
LCD_EnheMayuscula                 000009A4
LCD_EnheMinuscula                 00000994
LCD_Envia                         0000097A
LCD_EnviaByteLetra                00000A34
LCD_FinCGROM                      000009C4
LCD_FinVisualizaDigito            00000A38
LCD_Grado                         000009B6
MPASM 5.87                   MAINLCDMENU.ASM   2-27-2022  1:30:58         PAGE 37


SYMBOL TABLE
  LABEL                             VALUE 

LCD_GuardaDato                    00000009
LCD_L1                            000008A8
LCD_L1MENU                        000008A0
LCD_L2                            000008AC
LCD_L2MENU                        000008A4
LCD_L3                            000008B0
LCD_L3.10                         000008D4
LCD_L3.11                         000008D8
LCD_L3.12                         000008DC
LCD_L3.13                         000008E0
LCD_L3.14                         000008E4
LCD_L3.15                         000008E8
LCD_L3.16                         000008EC
LCD_L3.17                         000008F0
LCD_L3.18                         000008F4
LCD_L3.19                         000008F8
LCD_L3.2                          000008B4
LCD_L3.20                         000008FC
LCD_L3.3                          000008B8
LCD_L3.4                          000008BC
LCD_L3.5                          000008C0
LCD_L3.6                          000008C4
LCD_L3.7                          000008C8
LCD_L3.8                          000008CC
LCD_L3.9                          000008D0
LCD_L4                            00000900
LCD_L4.10                         00000924
LCD_L4.11                         00000928
LCD_L4.12                         0000092C
LCD_L4.13                         00000930
LCD_L4.14                         00000934
LCD_L4.15                         00000938
LCD_L4.16                         0000093C
LCD_L4.17                         00000940
LCD_L4.18                         00000944
LCD_L4.19                         00000948
LCD_L4.2                          00000904
LCD_L4.20                         0000094C
LCD_L4.3                          00000908
LCD_L4.4                          0000090C
LCD_L4.5                          00000910
LCD_L4.6                          00000914
LCD_L4.7                          00000918
LCD_L4.8                          0000091C
LCD_L4.9                          00000920
LCD_LINEA_CLEAR                   000009F0
LCD_Nibble                        00000A20
LCD_OFF                           00000958
LCD_PosicionLinea1                00000950
LCD_PosicionLinea2                00000954
LCD_SEND_WHITE                    000009F4
LCD_VisualizaAlto                 00000A18
LCD_VisualizaBajo                 00000A1E
MPASM 5.87                   MAINLCDMENU.ASM   2-27-2022  1:30:58         PAGE 38


SYMBOL TABLE
  LABEL                             VALUE 

LCD_WRITE                         00000884
LFIOFS                            00000000
LVDCON                            00000F9C
LVDEN                             00000004
LVDIE                             00000002
LVDIF                             00000002
LVDIN                             00000005
LVDIP                             00000002
LVDL0                             00000000
LVDL1                             00000001
LVDL2                             00000002
LVDL3                             00000003
LVV0                              00000000
LVV1                              00000001
LVV2                              00000002
LVV3                              00000003
MC1OUT                            00000007
MC2OUT                            00000006
MCLR                              00000003
MFIOFS                            00000001
MFIOSEL                           00000004
MSK0                              00000000
MSK1                              00000001
MSK2                              00000002
MSK3                              00000003
MSK4                              00000004
MSK5                              00000005
MSK6                              00000006
MSK7                              00000007
MSSP1MD                           00000006
MSSP2MD                           00000007
MUESTRA_CURSOR                    00000412
N                                 00000004
NOT_A                             00000005
NOT_ADDRESS                       00000005
NOT_BOR                           00000000
NOT_DONE                          00000001
NOT_MCLR                          00000003
NOT_PD                            00000002
NOT_POR                           00000001
NOT_RBPU                          00000007
NOT_RI                            00000004
NOT_SS                            00000005
NOT_SS1                           00000005
NOT_SS2                           00000000
NOT_T1SYNC                        00000002
NOT_T3SYNC                        00000002
NOT_T5SYNC                        00000002
NOT_TO                            00000003
NOT_W                             00000002
NOT_WRITE                         00000002
NVCFG0                            00000000
NVCFG1                            00000001
MPASM 5.87                   MAINLCDMENU.ASM   2-27-2022  1:30:58         PAGE 39


SYMBOL TABLE
  LABEL                             VALUE 

OERR                              00000001
OERR1                             00000001
OERR2                             00000001
OPCION2                           000000B2
OPCION3                           000000CC
OPCION_DOS                        000001E4
OPCION_TRES                       000002E2
OPCION_UNO                        000000E6
OSCCON                            00000FD3
OSCCON2                           00000FD2
OSCFIE                            00000007
OSCFIF                            00000007
OSCFIP                            00000007
OSCTUNE                           00000F9B
OSTS                              00000003
OV                                00000003
P                                 00000004
P1A                               00000002
P1B                               00000002
P1C                               00000001
P1D                               00000004
P1DC0                             00000000
P1DC1                             00000001
P1DC2                             00000002
P1DC3                             00000003
P1DC4                             00000004
P1DC5                             00000005
P1DC6                             00000006
P1M0                              00000006
P1M1                              00000007
P1RSEN                            00000007
P1SSAC0                           00000002
P1SSAC1                           00000003
P1SSBD0                           00000000
P1SSBD1                           00000001
P2A_PORTB                         00000003
P2A_PORTC                         00000001
P2B_PORTB                         00000005
P2B_PORTC                         00000000
P2DC0                             00000000
P2DC1                             00000001
P2DC2                             00000002
P2DC3                             00000003
P2DC4                             00000004
P2DC5                             00000005
P2DC6                             00000006
P2M0                              00000006
P2M1                              00000007
P2RSEN                            00000007
P2SSAC0                           00000002
P2SSAC1                           00000003
P2SSBD0                           00000000
P2SSBD1                           00000001
MPASM 5.87                   MAINLCDMENU.ASM   2-27-2022  1:30:58         PAGE 40


SYMBOL TABLE
  LABEL                             VALUE 

P3A_PORTB                         00000005
P3A_PORTC                         00000006
P3B                               00000007
P3DC0                             00000000
P3DC1                             00000001
P3DC2                             00000002
P3DC3                             00000003
P3DC4                             00000004
P3DC5                             00000005
P3DC6                             00000006
P3M0                              00000006
P3M1                              00000007
P3RSEN                            00000007
P3SSAC0                           00000002
P3SSAC1                           00000003
P3SSBD0                           00000000
P3SSBD1                           00000001
PC                                00000FF9
PCIE                              00000006
PCL                               00000FF9
PCLATH                            00000FFA
PCLATU                            00000FFB
PD                                00000002
PDC0                              00000000
PDC1                              00000001
PDC2                              00000002
PDC3                              00000003
PDC4                              00000004
PDC5                              00000005
PDC6                              00000006
PEIE                              00000006
PEIE_GIEL                         00000006
PEN                               00000002
PGC                               00000006
PGD                               00000007
PIE1                              00000F9D
PIE2                              00000FA0
PIE3                              00000FA3
PIE4                              00000F7A
PIE5                              00000F7D
PIR1                              00000F9E
PIR2                              00000FA1
PIR3                              00000FA4
PIR4                              00000F7B
PIR5                              00000F7E
PLLEN                             00000006
PLLRDY                            00000007
PLUSW0                            00000FEB
PLUSW1                            00000FE3
PLUSW2                            00000FDB
PMD0                              00000F3F
PMD1                              00000F3E
PMD2                              00000F3D
MPASM 5.87                   MAINLCDMENU.ASM   2-27-2022  1:30:58         PAGE 41


SYMBOL TABLE
  LABEL                             VALUE 

POR                               00000001
PORTA                             00000F80
PORTB                             00000F81
PORTC                             00000F82
PORTE                             00000F84
POSTDEC0                          00000FED
POSTDEC1                          00000FE5
POSTDEC2                          00000FDD
POSTINC0                          00000FEE
POSTINC1                          00000FE6
POSTINC2                          00000FDE
PR2                               00000FBB
PR4                               00000F52
PR6                               00000F4B
PREINC0                           00000FEC
PREINC1                           00000FE4
PREINC2                           00000FDC
PRINCIPAL                         00000078
PRINT_MENU_L1                     0000048E
PRINT_MENU_L2                     0000050C
PRINT_MENU_L3                     0000058A
PRINT_MENU_L4                     00000608
PRISD                             00000002
PROD                              00000FF3
PRODH                             00000FF4
PRODL                             00000FF3
PRSEN                             00000007
PSA                               00000003
PSS1AC0                           00000002
PSS1AC1                           00000003
PSS1BD0                           00000000
PSS1BD1                           00000001
PSS2AC0                           00000002
PSS2AC1                           00000003
PSS2BD0                           00000000
PSS2BD1                           00000001
PSS3AC0                           00000002
PSS3AC1                           00000003
PSS3BD0                           00000000
PSS3BD1                           00000001
PSSAC0                            00000002
PSSAC1                            00000003
PSSBD0                            00000000
PSSBD1                            00000001
PSTR1CON                          00000FB9
PSTR2CON                          00000F63
PSTR3CON                          00000F5A
PSTRCON                           00000FB9
PVCFG0                            00000002
PVCFG1                            00000003
PWM1CON                           00000FB7
PWM2CON                           00000F65
PWM3CON                           00000F5C
MPASM 5.87                   MAINLCDMENU.ASM   2-27-2022  1:30:58         PAGE 42


SYMBOL TABLE
  LABEL                             VALUE 

PWMCON                            00000FB7
R                                 00000002
RA0                               00000000
RA1                               00000001
RA2                               00000002
RA3                               00000003
RA4                               00000004
RA5                               00000005
RA6                               00000006
RA7                               00000007
RB0                               00000000
RB1                               00000001
RB2                               00000002
RB3                               00000003
RB4                               00000004
RB5                               00000005
RB6                               00000006
RB7                               00000007
RBIE                              00000003
RBIF                              00000000
RBIP                              00000000
RBPU                              00000007
RC0                               00000000
RC1                               00000001
RC1IE                             00000005
RC1IF                             00000005
RC1IP                             00000005
RC1REG                            00000FAE
RC1STA                            00000FAB
RC2                               00000002
RC2IE                             00000005
RC2IF                             00000005
RC2IP                             00000005
RC2REG                            00000F74
RC2STA                            00000F71
RC3                               00000003
RC4                               00000004
RC5                               00000005
RC6                               00000006
RC7                               00000007
RCEN                              00000003
RCIDL                             00000006
RCIE                              00000005
RCIF                              00000005
RCIP                              00000005
RCON                              00000FD0
RCREG                             00000FAE
RCREG1                            00000FAE
RCREG2                            00000F74
RCSTA                             00000FAB
RCSTA1                            00000FAB
RCSTA2                            00000F71
RD                                00000000
MPASM 5.87                   MAINLCDMENU.ASM   2-27-2022  1:30:58         PAGE 43


SYMBOL TABLE
  LABEL                             VALUE 

RD16                              00000001
RE                                LATC,3
RE3                               00000003
REINICIA_PROGRAMA                 00000062
RET_100ms                         000006DA
RET_100us                         0000078E
RET_10ms                          0000073E
RET_16ms                          00000716
RET_18ms                          0000072A
RET_1ms                           000007A2
RET_1s                            000006B2
RET_250us                         0000077A
RET_33ms                          00000702
RET_500ms                         000006C6
RET_500us                         00000766
RET_50ms                          000006EE
RET_5ms                           00000752
RET_SERVO                         0000069E
RI                                00000004
RS                                LATC,2
RSEN                              00000001
RX                                00000007
RX1                               00000007
RX2                               00000007
RX9                               00000006
RX91                              00000006
RX92                              00000006
RX9D                              00000000
RX9D1                             00000000
RX9D2                             00000000
R_NOT_W                           00000002
R_W                               00000002
S                                 00000003
SBCDE                             00000002
SBOREN                            00000006
SCIE                              00000005
SCK                               00000003
SCK1                              00000003
SCK2                              00000001
SCKP                              00000004
SCL                               00000003
SCL1                              00000003
SCL2                              00000001
SCS0                              00000000
SCS1                              00000001
SDA                               00000004
SDA1                              00000004
SDA2                              00000002
SDAHT                             00000003
SDI                               00000004
SDI1                              00000004
SDI2                              00000002
SDO                               00000005
MPASM 5.87                   MAINLCDMENU.ASM   2-27-2022  1:30:58         PAGE 44


SYMBOL TABLE
  LABEL                             VALUE 

SDO1                              00000005
SDO2                              00000003
SELECT_MENU                       00000092
SEN                               00000000
SENDB                             00000003
SENDB1                            00000003
SENDB2                            00000003
SET_CURSOR                        0000096E
SLRA                              00000000
SLRB                              00000001
SLRC                              00000002
SLRCON                            00000F60
SMP                               00000007
SOSCGO                            00000003
SOSCRUN                           00000006
SP0                               00000000
SP1                               00000001
SP1BRG                            00000FAF
SP1BRGH                           00000FB0
SP2                               00000002
SP2BRG                            00000F75
SP2BRGH                           00000F76
SP3                               00000003
SP4                               00000004
SPBRG                             00000FAF
SPBRG1                            00000FAF
SPBRG2                            00000F75
SPBRGH                            00000FB0
SPBRGH1                           00000FB0
SPBRGH2                           00000F76
SPEN                              00000007
SPEN1                             00000007
SPEN2                             00000007
SRCLK0                            00000004
SRCLK1                            00000005
SRCLK2                            00000006
SRCON0                            00000F47
SRCON1                            00000F46
SREN                              00000005
SREN1                             00000005
SREN2                             00000005
SRI                               00000000
SRLEN                             00000007
SRNQ                              00000005
SRNQEN                            00000002
SRPR                              00000000
SRPS                              00000001
SRQ                               00000004
SRQEN                             00000003
SRRC1E                            00000000
SRRC2E                            00000001
SRRCKE                            00000002
SRRPE                             00000003
MPASM 5.87                   MAINLCDMENU.ASM   2-27-2022  1:30:58         PAGE 45


SYMBOL TABLE
  LABEL                             VALUE 

SRSC1E                            00000004
SRSC2E                            00000005
SRSCKE                            00000006
SRSPE                             00000007
SS                                00000005
SS1                               00000005
SS2                               00000000
SSP1ADD                           00000FC8
SSP1BUF                           00000FC9
SSP1CON1                          00000FC6
SSP1CON2                          00000FC5
SSP1CON3                          00000FCB
SSP1IE                            00000003
SSP1IF                            00000003
SSP1IP                            00000003
SSP1MSK                           00000FCA
SSP1STAT                          00000FC7
SSP2ADD                           00000F6E
SSP2BUF                           00000F6F
SSP2CON1                          00000F6C
SSP2CON2                          00000F6B
SSP2CON3                          00000F69
SSP2IE                            00000007
SSP2IF                            00000007
SSP2IP                            00000007
SSP2MSK                           00000F6A
SSP2STAT                          00000F6D
SSPADD                            00000FC8
SSPBUF                            00000FC9
SSPCON1                           00000FC6
SSPCON2                           00000FC5
SSPCON3                           00000FCB
SSPEN                             00000005
SSPIE                             00000003
SSPIF                             00000003
SSPIP                             00000003
SSPM0                             00000000
SSPM1                             00000001
SSPM2                             00000002
SSPM3                             00000003
SSPMSK                            00000FCA
SSPOV                             00000006
SSPSTAT                           00000FC7
STATUS                            00000FD8
STATUS_TEMP                       00000001
STKFUL                            00000007
STKOVF                            00000007
STKPTR                            00000FFC
STKPTR0                           00000000
STKPTR1                           00000001
STKPTR2                           00000002
STKPTR3                           00000003
STKPTR4                           00000004
MPASM 5.87                   MAINLCDMENU.ASM   2-27-2022  1:30:58         PAGE 46


SYMBOL TABLE
  LABEL                             VALUE 

STKUNF                            00000006
STR1A                             00000000
STR1B                             00000001
STR1C                             00000002
STR1D                             00000003
STR1SYNC                          00000004
STR2A                             00000000
STR2B                             00000001
STR2C                             00000002
STR2D                             00000003
STR2SYNC                          00000004
STR3A                             00000000
STR3B                             00000001
STR3C                             00000002
STR3D                             00000003
STR3SYNC                          00000004
SUMA_CENTENAS                     00000812
SUMA_DECENAS                      00000828
SUMA_UNIDADES                     00000830
SWDTE                             00000000
SWDTEN                            00000000
SYNC                              00000004
SYNC1                             00000004
SYNC2                             00000004
S_CENTENAS                        00000804
S_DECENAS                         0000081A
T08BIT                            00000006
T0CKI                             00000004
T0CON                             00000FD5
T0CS                              00000005
T0IE                              00000005
T0IF                              00000002
T0PS0                             00000000
T0PS1                             00000001
T0PS2                             00000002
T0SE                              00000004
T1CKI                             00000000
T1CKPS0                           00000004
T1CKPS1                           00000005
T1CON                             00000FCD
T1G                               00000005
T1GCON                            00000FCC
T1GGO                             00000003
T1GGO_NOT_DONE                    00000003
T1GPOL                            00000006
T1GSPM                            00000004
T1GSS0                            00000000
T1GSS1                            00000001
T1GTM                             00000005
T1GVAL                            00000002
T1G_DONE                          00000003
T1OSCEN                           00000003
T1OSI                             00000001
MPASM 5.87                   MAINLCDMENU.ASM   2-27-2022  1:30:58         PAGE 47


SYMBOL TABLE
  LABEL                             VALUE 

T1OSO                             00000000
T1RD16                            00000001
T1SOSCEN                          00000003
T1SYNC                            00000002
T2CKPS0                           00000000
T2CKPS1                           00000001
T2CON                             00000FBA
T2OUTPS0                          00000003
T2OUTPS1                          00000004
T2OUTPS2                          00000005
T2OUTPS3                          00000006
T3CKI_PORTB                       00000005
T3CKI_PORTC                       00000000
T3CKPS0                           00000004
T3CKPS1                           00000005
T3CON                             00000FB1
T3G                               00000000
T3GCON                            00000FB4
T3GGO                             00000003
T3GGO_NOT_DONE                    00000003
T3GPOL                            00000006
T3GSPM                            00000004
T3GSS0                            00000000
T3GSS1                            00000001
T3GTM                             00000005
T3GVAL                            00000002
T3G_DONE                          00000003
T3OSCEN                           00000003
T3RD16                            00000001
T3SOSCEN                          00000003
T4CKPS0                           00000000
T4CKPS1                           00000001
T4CON                             00000F51
T4OUTPS0                          00000003
T4OUTPS1                          00000004
T4OUTPS2                          00000005
T4OUTPS3                          00000006
T5CKI                             00000002
T5CKPS0                           00000004
T5CKPS1                           00000005
T5CON                             00000F4E
T5G                               00000004
T5GCON                            00000F4D
T5GGO                             00000003
T5GGO_NOT_DONE                    00000003
T5GPOL                            00000006
T5GSPM                            00000004
T5GSS0                            00000000
T5GSS1                            00000001
T5GTM                             00000005
T5GVAL                            00000002
T5G_DONE                          00000003
T5RD16                            00000001
MPASM 5.87                   MAINLCDMENU.ASM   2-27-2022  1:30:58         PAGE 48


SYMBOL TABLE
  LABEL                             VALUE 

T5SOSCEN                          00000003
T5SYNC                            00000002
T6CKPS0                           00000000
T6CKPS1                           00000001
T6CON                             00000F4A
T6OUTPS0                          00000003
T6OUTPS1                          00000004
T6OUTPS2                          00000005
T6OUTPS3                          00000006
TABLAT                            00000FF5
TBLPTR                            00000FF6
TBLPTRH                           00000FF7
TBLPTRL                           00000FF6
TBLPTRU                           00000FF8
TGEN                              00000004
TMR0                              00000FD6
TMR0H                             00000FD7
TMR0IE                            00000005
TMR0IF                            00000002
TMR0IP                            00000002
TMR0L                             00000FD6
TMR0ON                            00000007
TMR1                              00000FCE
TMR1CS0                           00000006
TMR1CS1                           00000007
TMR1GE                            00000007
TMR1GIE                           00000000
TMR1GIF                           00000000
TMR1GIP                           00000000
TMR1H                             00000FCF
TMR1IE                            00000000
TMR1IF                            00000000
TMR1IP                            00000000
TMR1L                             00000FCE
TMR1MD                            00000000
TMR1ON                            00000000
TMR2                              00000FBC
TMR2IE                            00000001
TMR2IF                            00000001
TMR2IP                            00000001
TMR2MD                            00000001
TMR2ON                            00000002
TMR3                              00000FB2
TMR3CS0                           00000006
TMR3CS1                           00000007
TMR3GE                            00000007
TMR3GIE                           00000001
TMR3GIF                           00000001
TMR3GIP                           00000001
TMR3H                             00000FB3
TMR3IE                            00000001
TMR3IF                            00000001
TMR3IP                            00000001
MPASM 5.87                   MAINLCDMENU.ASM   2-27-2022  1:30:58         PAGE 49


SYMBOL TABLE
  LABEL                             VALUE 

TMR3L                             00000FB2
TMR3MD                            00000002
TMR3ON                            00000000
TMR4                              00000F53
TMR4IE                            00000000
TMR4IF                            00000000
TMR4IP                            00000000
TMR4MD                            00000003
TMR4ON                            00000002
TMR5                              00000F4F
TMR5CS0                           00000006
TMR5CS1                           00000007
TMR5GE                            00000007
TMR5GIE                           00000002
TMR5GIF                           00000002
TMR5GIP                           00000002
TMR5H                             00000F50
TMR5IE                            00000001
TMR5IF                            00000001
TMR5IP                            00000001
TMR5L                             00000F4F
TMR5MD                            00000004
TMR5ON                            00000000
TMR6                              00000F4C
TMR6IE                            00000002
TMR6IF                            00000002
TMR6IP                            00000002
TMR6MD                            00000005
TMR6ON                            00000002
TO                                00000003
TOS                               00000FFD
TOSH                              00000FFE
TOSL                              00000FFD
TOSU                              00000FFF
TRIGSEL                           00000007
TRISA                             00000F92
TRISA0                            00000000
TRISA1                            00000001
TRISA2                            00000002
TRISA3                            00000003
TRISA4                            00000004
TRISA5                            00000005
TRISA6                            00000006
TRISA7                            00000007
TRISB                             00000F93
TRISB0                            00000000
TRISB1                            00000001
TRISB2                            00000002
TRISB3                            00000003
TRISB4                            00000004
TRISB5                            00000005
TRISB6                            00000006
TRISB7                            00000007
MPASM 5.87                   MAINLCDMENU.ASM   2-27-2022  1:30:58         PAGE 50


SYMBOL TABLE
  LABEL                             VALUE 

TRISC                             00000F94
TRISC0                            00000000
TRISC1                            00000001
TRISC2                            00000002
TRISC3                            00000003
TRISC4                            00000004
TRISC5                            00000005
TRISC6                            00000006
TRISC7                            00000007
TRISE                             00000F96
TRMT                              00000001
TRMT1                             00000001
TRMT2                             00000001
TUN0                              00000000
TUN1                              00000001
TUN2                              00000002
TUN3                              00000003
TUN4                              00000004
TUN5                              00000005
TX                                00000006
TX1                               00000006
TX1IE                             00000004
TX1IF                             00000004
TX1IP                             00000004
TX1REG                            00000FAD
TX1STA                            00000FAC
TX2                               00000006
TX2IE                             00000004
TX2IF                             00000004
TX2IP                             00000004
TX2REG                            00000F73
TX2STA                            00000F72
TX9                               00000006
TX91                              00000006
TX92                              00000006
TX9D                              00000000
TX9D1                             00000000
TX9D2                             00000000
TXEN                              00000005
TXEN1                             00000005
TXEN2                             00000005
TXIE                              00000004
TXIF                              00000004
TXIP                              00000004
TXREG                             00000FAD
TXREG1                            00000FAD
TXREG2                            00000F73
TXSTA                             00000FAC
TXSTA1                            00000FAC
TXSTA2                            00000F72
UA                                00000001
UART1MD                           00000006
UART2MD                           00000007
MPASM 5.87                   MAINLCDMENU.ASM   2-27-2022  1:30:58         PAGE 51


SYMBOL TABLE
  LABEL                             VALUE 

VAR1                              00000003
VAR2                              00000004
VAR3                              00000005
VAR_X                             00000007
VDIRMAG                           00000007
VPP                               00000003
VREFCON0                          00000F42
VREFCON1                          00000F41
VREFCON2                          00000F40
VREFM                             00000002
VREFN                             00000002
VREFP                             00000003
W                                 00000000
WCOL                              00000007
WDTCON                            00000FD1
WPUB                              00000F61
WPUB0                             00000000
WPUB1                             00000001
WPUB2                             00000002
WPUB3                             00000003
WPUB4                             00000004
WPUB5                             00000005
WPUB6                             00000006
WPUB7                             00000007
WPUE3                             00000007
WR                                00000001
WREG                              00000FE8
WREN                              00000002
WRERR                             00000003
WUE                               00000001
W_TEMP                            00000000
Z                                 00000002
_BOREN_NOSLP_2L                   000000FD
_BOREN_OFF_2L                     000000F9
_BOREN_ON_2L                      000000FB
_BOREN_SBORDIS_2L                 000000FF
_BORV_190_2L                      000000FF
_BORV_220_2L                      000000F7
_BORV_250_2L                      000000EF
_BORV_285_2L                      000000E7
_CCP2MX_PORTB3_3H                 000000FE
_CCP2MX_PORTC1_3H                 000000FF
_CCP3MX_PORTB5_3H                 000000FF
_CCP3MX_PORTC6_3H                 000000FB
_CONFIG1H                         00300001
_CONFIG2H                         00300003
_CONFIG2L                         00300002
_CONFIG3H                         00300005
_CONFIG4L                         00300006
_CONFIG5H                         00300009
_CONFIG5L                         00300008
_CONFIG6H                         0030000B
_CONFIG6L                         0030000A
MPASM 5.87                   MAINLCDMENU.ASM   2-27-2022  1:30:58         PAGE 52


SYMBOL TABLE
  LABEL                             VALUE 

_CONFIG7H                         0030000D
_CONFIG7L                         0030000C
_CP0_OFF_5L                       000000FF
_CP0_ON_5L                        000000FE
_CP1_OFF_5L                       000000FF
_CP1_ON_5L                        000000FD
_CP2_OFF_5L                       000000FF
_CP2_ON_5L                        000000FB
_CP3_OFF_5L                       000000FF
_CP3_ON_5L                        000000F7
_CPB_OFF_5H                       000000FF
_CPB_ON_5H                        000000BF
_CPD_OFF_5H                       000000FF
_CPD_ON_5H                        0000007F
_DEBUG_OFF_4L                     000000FF
_DEBUG_ON_4L                      0000007F
_DEVID1                           003FFFFE
_DEVID2                           003FFFFF
_EBTR0_OFF_7L                     000000FF
_EBTR0_ON_7L                      000000FE
_EBTR1_OFF_7L                     000000FF
_EBTR1_ON_7L                      000000FD
_EBTR2_OFF_7L                     000000FF
_EBTR2_ON_7L                      000000FB
_EBTR3_OFF_7L                     000000FF
_EBTR3_ON_7L                      000000F7
_EBTRB_OFF_7H                     000000FF
_EBTRB_ON_7H                      000000BF
_FCMEN_OFF_1H                     000000BF
_FCMEN_ON_1H                      000000FF
_FOSC_ECHPIO6_1H                  000000F5
_FOSC_ECHP_1H                     000000F4
_FOSC_ECLPIO6_1H                  000000FD
_FOSC_ECLP_1H                     000000FC
_FOSC_ECMPIO6_1H                  000000FB
_FOSC_ECMP_1H                     000000FA
_FOSC_HSHP_1H                     000000F2
_FOSC_HSMP_1H                     000000F3
_FOSC_INTIO67_1H                  000000F8
_FOSC_INTIO7_1H                   000000F9
_FOSC_LP_1H                       000000F0
_FOSC_RCIO6_1H                    000000F7
_FOSC_RC_1H                       000000F6
_FOSC_XT_1H                       000000F1
_HFOFST_OFF_3H                    000000F7
_HFOFST_ON_3H                     000000FF
_IDLOC0                           00200000
_IDLOC1                           00200001
_IDLOC2                           00200002
_IDLOC3                           00200003
_IDLOC4                           00200004
_IDLOC5                           00200005
_IDLOC6                           00200006
MPASM 5.87                   MAINLCDMENU.ASM   2-27-2022  1:30:58         PAGE 53


SYMBOL TABLE
  LABEL                             VALUE 

_IDLOC7                           00200007
_IESO_OFF_1H                      0000007F
_IESO_ON_1H                       000000FF
_LVP_OFF_4L                       000000FB
_LVP_ON_4L                        000000FF
_MCLRE_EXTMCLR_3H                 000000FF
_MCLRE_INTMCLR_3H                 0000007F
_P2BMX_PORTB5_3H                  000000FF
_P2BMX_PORTC0_3H                  000000DF
_PBADEN_OFF_3H                    000000FD
_PBADEN_ON_3H                     000000FF
_PLLCFG_OFF_1H                    000000EF
_PLLCFG_ON_1H                     000000FF
_PRICLKEN_OFF_1H                  000000DF
_PRICLKEN_ON_1H                   000000FF
_PWRTEN_OFF_2L                    000000FF
_PWRTEN_ON_2L                     000000FE
_STVREN_OFF_4L                    000000FE
_STVREN_ON_4L                     000000FF
_T3CMX_PORTB5_3H                  000000EF
_T3CMX_PORTC0_3H                  000000FF
_WDTEN_NOSLP_2H                   000000FD
_WDTEN_OFF_2H                     000000FC
_WDTEN_ON_2H                      000000FF
_WDTEN_SWON_2H                    000000FE
_WDTPS_1024_2H                    000000EB
_WDTPS_128_2H                     000000DF
_WDTPS_16384_2H                   000000FB
_WDTPS_16_2H                      000000D3
_WDTPS_1_2H                       000000C3
_WDTPS_2048_2H                    000000EF
_WDTPS_256_2H                     000000E3
_WDTPS_2_2H                       000000C7
_WDTPS_32768_2H                   000000FF
_WDTPS_32_2H                      000000D7
_WDTPS_4096_2H                    000000F3
_WDTPS_4_2H                       000000CB
_WDTPS_512_2H                     000000E7
_WDTPS_64_2H                      000000DB
_WDTPS_8192_2H                    000000F7
_WDTPS_8_2H                       000000CF
_WRT0_OFF_6L                      000000FF
_WRT0_ON_6L                       000000FE
_WRT1_OFF_6L                      000000FF
_WRT1_ON_6L                       000000FD
_WRT2_OFF_6L                      000000FF
_WRT2_ON_6L                       000000FB
_WRT3_OFF_6L                      000000FF
_WRT3_ON_6L                       000000F7
_WRTB_OFF_6H                      000000FF
_WRTB_ON_6H                       000000BF
_WRTC_OFF_6H                      000000FF
_WRTC_ON_6H                       000000DF
MPASM 5.87                   MAINLCDMENU.ASM   2-27-2022  1:30:58         PAGE 54


SYMBOL TABLE
  LABEL                             VALUE 

_WRTD_OFF_6H                      000000FF
_WRTD_ON_6H                       0000007F
_XINST_OFF_4L                     000000BF
_XINST_ON_4L                      000000FF
__18F26K22                        00000001

Errors   :     0
Warnings :     4 reported,     0 suppressed
Messages :     0 reported,     0 suppressed

