MPLINK 5.09, LINKER
Linker Map File - Created Sat Feb 19 02:52:41 2022

                                 Section Info
                  Section       Type    Address   Location Size(Bytes)
                ---------  ---------  ---------  ---------  ---------
                   .org_0       code   0x000000    program   0x000004
                   .cinit    romdata   0x000004    program   0x000002
                   .org_1       code   0x000008    program   0x000004
                   .org_2       code   0x000018    program   0x000584
.config_300001_BUILD/DEFAULT/PRODUCTION/MAIN.O    romdata   0x300001    program   0x000001
.config_300002_BUILD/DEFAULT/PRODUCTION/MAIN.O    romdata   0x300002    program   0x000001
.config_300003_BUILD/DEFAULT/PRODUCTION/MAIN.O    romdata   0x300003    program   0x000001
.config_300005_BUILD/DEFAULT/PRODUCTION/MAIN.O    romdata   0x300005    program   0x000001
.config_300006_BUILD/DEFAULT/PRODUCTION/MAIN.O    romdata   0x300006    program   0x000001
.config_300008_BUILD/DEFAULT/PRODUCTION/MAIN.O    romdata   0x300008    program   0x000001
.config_300009_BUILD/DEFAULT/PRODUCTION/MAIN.O    romdata   0x300009    program   0x000001
.config_30000A_BUILD/DEFAULT/PRODUCTION/MAIN.O    romdata   0x30000a    program   0x000001
.config_30000B_BUILD/DEFAULT/PRODUCTION/MAIN.O    romdata   0x30000b    program   0x000001
.config_30000C_BUILD/DEFAULT/PRODUCTION/MAIN.O    romdata   0x30000c    program   0x000001
.config_30000D_BUILD/DEFAULT/PRODUCTION/MAIN.O    romdata   0x30000d    program   0x000001



                              Program Memory Usage 
                               Start         End      
                           ---------   ---------      
                            0x000000    0x000005      
                            0x000008    0x00000b      
                            0x000018    0x00059b      
                            0x300001    0x300003      
                            0x300005    0x300006      
                            0x300008    0x30000d      
            1433 out of 66584 program addresses used, program memory utilization is 2%



                              Symbols - Sorted by Name
                     Name    Address   Location    Storage File                     
                ---------  ---------  ---------  --------- ---------                
           ALTA_PRIORIDAD   0x00002e    program     static C:\Users\flexy\Desktop\PIC Turotiales\PIC18F26K22\ASM\LCD .X\MAIN.asm
           BAJA_PRIORIDAD   0x000018    program     static C:\Users\flexy\Desktop\PIC Turotiales\PIC18F26K22\ASM\LCD .X\MAIN.asm
           BSUMA_CENTENAS   0x000338    program     static C:\Users\flexy\Desktop\PIC Turotiales\PIC18F26K22\ASM\LCD .X\LCD_4BIT.INC
            BSUMA_DECENAS   0x00034e    program     static C:\Users\flexy\Desktop\PIC Turotiales\PIC18F26K22\ASM\LCD .X\LCD_4BIT.INC
           BSUMA_UNIDADES   0x000356    program     static C:\Users\flexy\Desktop\PIC Turotiales\PIC18F26K22\ASM\LCD .X\LCD_4BIT.INC
              BS_CENTENAS   0x00032a    program     static C:\Users\flexy\Desktop\PIC Turotiales\PIC18F26K22\ASM\LCD .X\LCD_4BIT.INC
               BS_DECENAS   0x000340    program     static C:\Users\flexy\Desktop\PIC Turotiales\PIC18F26K22\ASM\LCD .X\LCD_4BIT.INC
            CICLO_RETARDO   0x000316    program     static C:\Users\flexy\Desktop\PIC Turotiales\PIC18F26K22\ASM\LCD .X\RETARDOS.INC
           CONVERSION_BCD   0x00035c    program     static C:\Users\flexy\Desktop\PIC Turotiales\PIC18F26K22\ASM\LCD .X\LCD_4BIT.INC
           CONVERSION_BIN   0x000322    program     static C:\Users\flexy\Desktop\PIC Turotiales\PIC18F26K22\ASM\LCD .X\LCD_4BIT.INC
              ENVIAR_DATO   0x0004d4    program     static C:\Users\flexy\Desktop\PIC Turotiales\PIC18F26K22\ASM\LCD .X\LCD_4BIT.INC
                FIN_INTER   0x000022    program     static C:\Users\flexy\Desktop\PIC Turotiales\PIC18F26K22\ASM\LCD .X\MAIN.asm
                   INICIO   0x000032    program     static C:\Users\flexy\Desktop\PIC Turotiales\PIC18F26K22\ASM\LCD .X\MAIN.asm
                  INI_LCD   0x00039e    program     static C:\Users\flexy\Desktop\PIC Turotiales\PIC18F26K22\ASM\LCD .X\LCD_4BIT.INC
      LCD_2Lineas4Bits5x7   0x0004c8    program     static C:\Users\flexy\Desktop\PIC Turotiales\PIC18F26K22\ASM\LCD .X\LCD_4BIT.INC
                 LCD_Byte   0x000562    program     static C:\Users\flexy\Desktop\PIC Turotiales\PIC18F26K22\ASM\LCD .X\LCD_4BIT.INC
         LCD_ByteCompleto   0x000576    program     static C:\Users\flexy\Desktop\PIC Turotiales\PIC18F26K22\ASM\LCD .X\LCD_4BIT.INC
                LCD_CLEAR   0x0004c4    program     static C:\Users\flexy\Desktop\PIC Turotiales\PIC18F26K22\ASM\LCD .X\LCD_4BIT.INC
             LCD_CLEAR_L1   0x000528    program     static C:\Users\flexy\Desktop\PIC Turotiales\PIC18F26K22\ASM\LCD .X\LCD_4BIT.INC
             LCD_CLEAR_L2   0x000532    program     static C:\Users\flexy\Desktop\PIC Turotiales\PIC18F26K22\ASM\LCD .X\LCD_4BIT.INC
             LCD_CLEAR_L3   0x00053c    program     static C:\Users\flexy\Desktop\PIC Turotiales\PIC18F26K22\ASM\LCD .X\LCD_4BIT.INC
             LCD_CLEAR_L4   0x000546    program     static C:\Users\flexy\Desktop\PIC Turotiales\PIC18F26K22\ASM\LCD .X\LCD_4BIT.INC
                  LCD_CMD   0x0004ca    program     static C:\Users\flexy\Desktop\PIC Turotiales\PIC18F26K22\ASM\LCD .X\LCD_4BIT.INC
                 LCD_CTMP   0x0003fc    program     static C:\Users\flexy\Desktop\PIC Turotiales\PIC18F26K22\ASM\LCD .X\LCD_4BIT.INC
           LCD_CURSOR_BON   0x0004d0    program     static C:\Users\flexy\Desktop\PIC Turotiales\PIC18F26K22\ASM\LCD .X\LCD_4BIT.INC
                LCD_C_OFF   0x0004c0    program     static C:\Users\flexy\Desktop\PIC Turotiales\PIC18F26K22\ASM\LCD .X\LCD_4BIT.INC
                 LCD_C_ON   0x0004bc    program     static C:\Users\flexy\Desktop\PIC Turotiales\PIC18F26K22\ASM\LCD .X\LCD_4BIT.INC
          LCD_CodigoCGROM   0x0004f2    program     static C:\Users\flexy\Desktop\PIC Turotiales\PIC18F26K22\ASM\LCD .X\LCD_4BIT.INC
           LCD_CursorIncr   0x0003f8    program     static C:\Users\flexy\Desktop\PIC Turotiales\PIC18F26K22\ASM\LCD .X\LCD_4BIT.INC
        LCD_EnheMayuscula   0x000504    program     static C:\Users\flexy\Desktop\PIC Turotiales\PIC18F26K22\ASM\LCD .X\LCD_4BIT.INC
        LCD_EnheMinuscula   0x0004f4    program     static C:\Users\flexy\Desktop\PIC Turotiales\PIC18F26K22\ASM\LCD .X\LCD_4BIT.INC
                LCD_Envia   0x0004da    program     static C:\Users\flexy\Desktop\PIC Turotiales\PIC18F26K22\ASM\LCD .X\LCD_4BIT.INC
       LCD_EnviaByteLetra   0x000594    program     static C:\Users\flexy\Desktop\PIC Turotiales\PIC18F26K22\ASM\LCD .X\LCD_4BIT.INC
             LCD_FinCGROM   0x000524    program     static C:\Users\flexy\Desktop\PIC Turotiales\PIC18F26K22\ASM\LCD .X\LCD_4BIT.INC
   LCD_FinVisualizaDigito   0x000598    program     static C:\Users\flexy\Desktop\PIC Turotiales\PIC18F26K22\ASM\LCD .X\LCD_4BIT.INC
                LCD_Grado   0x000516    program     static C:\Users\flexy\Desktop\PIC Turotiales\PIC18F26K22\ASM\LCD .X\LCD_4BIT.INC
                   LCD_L1   0x000408    program     static C:\Users\flexy\Desktop\PIC Turotiales\PIC18F26K22\ASM\LCD .X\LCD_4BIT.INC
               LCD_L1MENU   0x000400    program     static C:\Users\flexy\Desktop\PIC Turotiales\PIC18F26K22\ASM\LCD .X\LCD_4BIT.INC
                   LCD_L2   0x00040c    program     static C:\Users\flexy\Desktop\PIC Turotiales\PIC18F26K22\ASM\LCD .X\LCD_4BIT.INC
               LCD_L2MENU   0x000404    program     static C:\Users\flexy\Desktop\PIC Turotiales\PIC18F26K22\ASM\LCD .X\LCD_4BIT.INC
                   LCD_L3   0x000410    program     static C:\Users\flexy\Desktop\PIC Turotiales\PIC18F26K22\ASM\LCD .X\LCD_4BIT.INC
                LCD_L3.10   0x000434    program     static C:\Users\flexy\Desktop\PIC Turotiales\PIC18F26K22\ASM\LCD .X\LCD_4BIT.INC
                LCD_L3.11   0x000438    program     static C:\Users\flexy\Desktop\PIC Turotiales\PIC18F26K22\ASM\LCD .X\LCD_4BIT.INC
                LCD_L3.12   0x00043c    program     static C:\Users\flexy\Desktop\PIC Turotiales\PIC18F26K22\ASM\LCD .X\LCD_4BIT.INC
                LCD_L3.13   0x000440    program     static C:\Users\flexy\Desktop\PIC Turotiales\PIC18F26K22\ASM\LCD .X\LCD_4BIT.INC
                LCD_L3.14   0x000444    program     static C:\Users\flexy\Desktop\PIC Turotiales\PIC18F26K22\ASM\LCD .X\LCD_4BIT.INC
                LCD_L3.15   0x000448    program     static C:\Users\flexy\Desktop\PIC Turotiales\PIC18F26K22\ASM\LCD .X\LCD_4BIT.INC
                LCD_L3.16   0x00044c    program     static C:\Users\flexy\Desktop\PIC Turotiales\PIC18F26K22\ASM\LCD .X\LCD_4BIT.INC
                LCD_L3.17   0x000450    program     static C:\Users\flexy\Desktop\PIC Turotiales\PIC18F26K22\ASM\LCD .X\LCD_4BIT.INC
                LCD_L3.18   0x000454    program     static C:\Users\flexy\Desktop\PIC Turotiales\PIC18F26K22\ASM\LCD .X\LCD_4BIT.INC
                LCD_L3.19   0x000458    program     static C:\Users\flexy\Desktop\PIC Turotiales\PIC18F26K22\ASM\LCD .X\LCD_4BIT.INC
                 LCD_L3.2   0x000414    program     static C:\Users\flexy\Desktop\PIC Turotiales\PIC18F26K22\ASM\LCD .X\LCD_4BIT.INC
                LCD_L3.20   0x00045c    program     static C:\Users\flexy\Desktop\PIC Turotiales\PIC18F26K22\ASM\LCD .X\LCD_4BIT.INC
                 LCD_L3.3   0x000418    program     static C:\Users\flexy\Desktop\PIC Turotiales\PIC18F26K22\ASM\LCD .X\LCD_4BIT.INC
                 LCD_L3.4   0x00041c    program     static C:\Users\flexy\Desktop\PIC Turotiales\PIC18F26K22\ASM\LCD .X\LCD_4BIT.INC
                 LCD_L3.5   0x000420    program     static C:\Users\flexy\Desktop\PIC Turotiales\PIC18F26K22\ASM\LCD .X\LCD_4BIT.INC
                 LCD_L3.6   0x000424    program     static C:\Users\flexy\Desktop\PIC Turotiales\PIC18F26K22\ASM\LCD .X\LCD_4BIT.INC
                 LCD_L3.7   0x000428    program     static C:\Users\flexy\Desktop\PIC Turotiales\PIC18F26K22\ASM\LCD .X\LCD_4BIT.INC
                 LCD_L3.8   0x00042c    program     static C:\Users\flexy\Desktop\PIC Turotiales\PIC18F26K22\ASM\LCD .X\LCD_4BIT.INC
                 LCD_L3.9   0x000430    program     static C:\Users\flexy\Desktop\PIC Turotiales\PIC18F26K22\ASM\LCD .X\LCD_4BIT.INC
                   LCD_L4   0x000460    program     static C:\Users\flexy\Desktop\PIC Turotiales\PIC18F26K22\ASM\LCD .X\LCD_4BIT.INC
                LCD_L4.10   0x000484    program     static C:\Users\flexy\Desktop\PIC Turotiales\PIC18F26K22\ASM\LCD .X\LCD_4BIT.INC
                LCD_L4.11   0x000488    program     static C:\Users\flexy\Desktop\PIC Turotiales\PIC18F26K22\ASM\LCD .X\LCD_4BIT.INC
                LCD_L4.12   0x00048c    program     static C:\Users\flexy\Desktop\PIC Turotiales\PIC18F26K22\ASM\LCD .X\LCD_4BIT.INC
                LCD_L4.13   0x000490    program     static C:\Users\flexy\Desktop\PIC Turotiales\PIC18F26K22\ASM\LCD .X\LCD_4BIT.INC
                LCD_L4.14   0x000494    program     static C:\Users\flexy\Desktop\PIC Turotiales\PIC18F26K22\ASM\LCD .X\LCD_4BIT.INC
                LCD_L4.15   0x000498    program     static C:\Users\flexy\Desktop\PIC Turotiales\PIC18F26K22\ASM\LCD .X\LCD_4BIT.INC
                LCD_L4.16   0x00049c    program     static C:\Users\flexy\Desktop\PIC Turotiales\PIC18F26K22\ASM\LCD .X\LCD_4BIT.INC
                LCD_L4.17   0x0004a0    program     static C:\Users\flexy\Desktop\PIC Turotiales\PIC18F26K22\ASM\LCD .X\LCD_4BIT.INC
                LCD_L4.18   0x0004a4    program     static C:\Users\flexy\Desktop\PIC Turotiales\PIC18F26K22\ASM\LCD .X\LCD_4BIT.INC
                LCD_L4.19   0x0004a8    program     static C:\Users\flexy\Desktop\PIC Turotiales\PIC18F26K22\ASM\LCD .X\LCD_4BIT.INC
                 LCD_L4.2   0x000464    program     static C:\Users\flexy\Desktop\PIC Turotiales\PIC18F26K22\ASM\LCD .X\LCD_4BIT.INC
                LCD_L4.20   0x0004ac    program     static C:\Users\flexy\Desktop\PIC Turotiales\PIC18F26K22\ASM\LCD .X\LCD_4BIT.INC
                 LCD_L4.3   0x000468    program     static C:\Users\flexy\Desktop\PIC Turotiales\PIC18F26K22\ASM\LCD .X\LCD_4BIT.INC
                 LCD_L4.4   0x00046c    program     static C:\Users\flexy\Desktop\PIC Turotiales\PIC18F26K22\ASM\LCD .X\LCD_4BIT.INC
                 LCD_L4.5   0x000470    program     static C:\Users\flexy\Desktop\PIC Turotiales\PIC18F26K22\ASM\LCD .X\LCD_4BIT.INC
                 LCD_L4.6   0x000474    program     static C:\Users\flexy\Desktop\PIC Turotiales\PIC18F26K22\ASM\LCD .X\LCD_4BIT.INC
                 LCD_L4.7   0x000478    program     static C:\Users\flexy\Desktop\PIC Turotiales\PIC18F26K22\ASM\LCD .X\LCD_4BIT.INC
                 LCD_L4.8   0x00047c    program     static C:\Users\flexy\Desktop\PIC Turotiales\PIC18F26K22\ASM\LCD .X\LCD_4BIT.INC
                 LCD_L4.9   0x000480    program     static C:\Users\flexy\Desktop\PIC Turotiales\PIC18F26K22\ASM\LCD .X\LCD_4BIT.INC
          LCD_LINEA_CLEAR   0x000550    program     static C:\Users\flexy\Desktop\PIC Turotiales\PIC18F26K22\ASM\LCD .X\LCD_4BIT.INC
               LCD_Nibble   0x000580    program     static C:\Users\flexy\Desktop\PIC Turotiales\PIC18F26K22\ASM\LCD .X\LCD_4BIT.INC
                  LCD_OFF   0x0004b8    program     static C:\Users\flexy\Desktop\PIC Turotiales\PIC18F26K22\ASM\LCD .X\LCD_4BIT.INC
       LCD_PosicionLinea1   0x0004b0    program     static C:\Users\flexy\Desktop\PIC Turotiales\PIC18F26K22\ASM\LCD .X\LCD_4BIT.INC
       LCD_PosicionLinea2   0x0004b4    program     static C:\Users\flexy\Desktop\PIC Turotiales\PIC18F26K22\ASM\LCD .X\LCD_4BIT.INC
           LCD_SEND_WHITE   0x000554    program     static C:\Users\flexy\Desktop\PIC Turotiales\PIC18F26K22\ASM\LCD .X\LCD_4BIT.INC
        LCD_VisualizaAlto   0x000578    program     static C:\Users\flexy\Desktop\PIC Turotiales\PIC18F26K22\ASM\LCD .X\LCD_4BIT.INC
        LCD_VisualizaBajo   0x00057e    program     static C:\Users\flexy\Desktop\PIC Turotiales\PIC18F26K22\ASM\LCD .X\LCD_4BIT.INC
                LCD_WRITE   0x0003e4    program     static C:\Users\flexy\Desktop\PIC Turotiales\PIC18F26K22\ASM\LCD .X\LCD_4BIT.INC
                PRINCIPAL   0x000072    program     static C:\Users\flexy\Desktop\PIC Turotiales\PIC18F26K22\ASM\LCD .X\MAIN.asm
             PRINT_VALOR1   0x000096    program     static C:\Users\flexy\Desktop\PIC Turotiales\PIC18F26K22\ASM\LCD .X\MAIN.asm
             PRINT_VALOR2   0x0000f0    program     static C:\Users\flexy\Desktop\PIC Turotiales\PIC18F26K22\ASM\LCD .X\MAIN.asm
             PRINT_VALOR3   0x00014a    program     static C:\Users\flexy\Desktop\PIC Turotiales\PIC18F26K22\ASM\LCD .X\MAIN.asm
             PRINT_VALOR4   0x0001a4    program     static C:\Users\flexy\Desktop\PIC Turotiales\PIC18F26K22\ASM\LCD .X\MAIN.asm
                RET_100ms   0x00023a    program     static C:\Users\flexy\Desktop\PIC Turotiales\PIC18F26K22\ASM\LCD .X\RETARDOS.INC
                RET_100us   0x0002ee    program     static C:\Users\flexy\Desktop\PIC Turotiales\PIC18F26K22\ASM\LCD .X\RETARDOS.INC
                 RET_10ms   0x00029e    program     static C:\Users\flexy\Desktop\PIC Turotiales\PIC18F26K22\ASM\LCD .X\RETARDOS.INC
                 RET_16ms   0x000276    program     static C:\Users\flexy\Desktop\PIC Turotiales\PIC18F26K22\ASM\LCD .X\RETARDOS.INC
                 RET_18ms   0x00028a    program     static C:\Users\flexy\Desktop\PIC Turotiales\PIC18F26K22\ASM\LCD .X\RETARDOS.INC
                  RET_1ms   0x000302    program     static C:\Users\flexy\Desktop\PIC Turotiales\PIC18F26K22\ASM\LCD .X\RETARDOS.INC
                   RET_1s   0x000212    program     static C:\Users\flexy\Desktop\PIC Turotiales\PIC18F26K22\ASM\LCD .X\RETARDOS.INC
                RET_250us   0x0002da    program     static C:\Users\flexy\Desktop\PIC Turotiales\PIC18F26K22\ASM\LCD .X\RETARDOS.INC
                 RET_33ms   0x000262    program     static C:\Users\flexy\Desktop\PIC Turotiales\PIC18F26K22\ASM\LCD .X\RETARDOS.INC
                RET_500ms   0x000226    program     static C:\Users\flexy\Desktop\PIC Turotiales\PIC18F26K22\ASM\LCD .X\RETARDOS.INC
                RET_500us   0x0002c6    program     static C:\Users\flexy\Desktop\PIC Turotiales\PIC18F26K22\ASM\LCD .X\RETARDOS.INC
                 RET_50ms   0x00024e    program     static C:\Users\flexy\Desktop\PIC Turotiales\PIC18F26K22\ASM\LCD .X\RETARDOS.INC
                  RET_5ms   0x0002b2    program     static C:\Users\flexy\Desktop\PIC Turotiales\PIC18F26K22\ASM\LCD .X\RETARDOS.INC
                RET_SERVO   0x0001fe    program     static C:\Users\flexy\Desktop\PIC Turotiales\PIC18F26K22\ASM\LCD .X\RETARDOS.INC
               SET_CURSOR   0x0004ce    program     static C:\Users\flexy\Desktop\PIC Turotiales\PIC18F26K22\ASM\LCD .X\LCD_4BIT.INC
            SUMA_CENTENAS   0x000372    program     static C:\Users\flexy\Desktop\PIC Turotiales\PIC18F26K22\ASM\LCD .X\LCD_4BIT.INC
             SUMA_DECENAS   0x000388    program     static C:\Users\flexy\Desktop\PIC Turotiales\PIC18F26K22\ASM\LCD .X\LCD_4BIT.INC
            SUMA_UNIDADES   0x000390    program     static C:\Users\flexy\Desktop\PIC Turotiales\PIC18F26K22\ASM\LCD .X\LCD_4BIT.INC
               S_CENTENAS   0x000364    program     static C:\Users\flexy\Desktop\PIC Turotiales\PIC18F26K22\ASM\LCD .X\LCD_4BIT.INC
                S_DECENAS   0x00037a    program     static C:\Users\flexy\Desktop\PIC Turotiales\PIC18F26K22\ASM\LCD .X\LCD_4BIT.INC



                              Symbols - Sorted by Address
                     Name    Address   Location    Storage File                     
                ---------  ---------  ---------  --------- ---------                
           BAJA_PRIORIDAD   0x000018    program     static C:\Users\flexy\Desktop\PIC Turotiales\PIC18F26K22\ASM\LCD .X\MAIN.asm
                FIN_INTER   0x000022    program     static C:\Users\flexy\Desktop\PIC Turotiales\PIC18F26K22\ASM\LCD .X\MAIN.asm
           ALTA_PRIORIDAD   0x00002e    program     static C:\Users\flexy\Desktop\PIC Turotiales\PIC18F26K22\ASM\LCD .X\MAIN.asm
                   INICIO   0x000032    program     static C:\Users\flexy\Desktop\PIC Turotiales\PIC18F26K22\ASM\LCD .X\MAIN.asm
                PRINCIPAL   0x000072    program     static C:\Users\flexy\Desktop\PIC Turotiales\PIC18F26K22\ASM\LCD .X\MAIN.asm
             PRINT_VALOR1   0x000096    program     static C:\Users\flexy\Desktop\PIC Turotiales\PIC18F26K22\ASM\LCD .X\MAIN.asm
             PRINT_VALOR2   0x0000f0    program     static C:\Users\flexy\Desktop\PIC Turotiales\PIC18F26K22\ASM\LCD .X\MAIN.asm
             PRINT_VALOR3   0x00014a    program     static C:\Users\flexy\Desktop\PIC Turotiales\PIC18F26K22\ASM\LCD .X\MAIN.asm
             PRINT_VALOR4   0x0001a4    program     static C:\Users\flexy\Desktop\PIC Turotiales\PIC18F26K22\ASM\LCD .X\MAIN.asm
                RET_SERVO   0x0001fe    program     static C:\Users\flexy\Desktop\PIC Turotiales\PIC18F26K22\ASM\LCD .X\RETARDOS.INC
                   RET_1s   0x000212    program     static C:\Users\flexy\Desktop\PIC Turotiales\PIC18F26K22\ASM\LCD .X\RETARDOS.INC
                RET_500ms   0x000226    program     static C:\Users\flexy\Desktop\PIC Turotiales\PIC18F26K22\ASM\LCD .X\RETARDOS.INC
                RET_100ms   0x00023a    program     static C:\Users\flexy\Desktop\PIC Turotiales\PIC18F26K22\ASM\LCD .X\RETARDOS.INC
                 RET_50ms   0x00024e    program     static C:\Users\flexy\Desktop\PIC Turotiales\PIC18F26K22\ASM\LCD .X\RETARDOS.INC
                 RET_33ms   0x000262    program     static C:\Users\flexy\Desktop\PIC Turotiales\PIC18F26K22\ASM\LCD .X\RETARDOS.INC
                 RET_16ms   0x000276    program     static C:\Users\flexy\Desktop\PIC Turotiales\PIC18F26K22\ASM\LCD .X\RETARDOS.INC
                 RET_18ms   0x00028a    program     static C:\Users\flexy\Desktop\PIC Turotiales\PIC18F26K22\ASM\LCD .X\RETARDOS.INC
                 RET_10ms   0x00029e    program     static C:\Users\flexy\Desktop\PIC Turotiales\PIC18F26K22\ASM\LCD .X\RETARDOS.INC
                  RET_5ms   0x0002b2    program     static C:\Users\flexy\Desktop\PIC Turotiales\PIC18F26K22\ASM\LCD .X\RETARDOS.INC
                RET_500us   0x0002c6    program     static C:\Users\flexy\Desktop\PIC Turotiales\PIC18F26K22\ASM\LCD .X\RETARDOS.INC
                RET_250us   0x0002da    program     static C:\Users\flexy\Desktop\PIC Turotiales\PIC18F26K22\ASM\LCD .X\RETARDOS.INC
                RET_100us   0x0002ee    program     static C:\Users\flexy\Desktop\PIC Turotiales\PIC18F26K22\ASM\LCD .X\RETARDOS.INC
                  RET_1ms   0x000302    program     static C:\Users\flexy\Desktop\PIC Turotiales\PIC18F26K22\ASM\LCD .X\RETARDOS.INC
            CICLO_RETARDO   0x000316    program     static C:\Users\flexy\Desktop\PIC Turotiales\PIC18F26K22\ASM\LCD .X\RETARDOS.INC
           CONVERSION_BIN   0x000322    program     static C:\Users\flexy\Desktop\PIC Turotiales\PIC18F26K22\ASM\LCD .X\LCD_4BIT.INC
              BS_CENTENAS   0x00032a    program     static C:\Users\flexy\Desktop\PIC Turotiales\PIC18F26K22\ASM\LCD .X\LCD_4BIT.INC
           BSUMA_CENTENAS   0x000338    program     static C:\Users\flexy\Desktop\PIC Turotiales\PIC18F26K22\ASM\LCD .X\LCD_4BIT.INC
               BS_DECENAS   0x000340    program     static C:\Users\flexy\Desktop\PIC Turotiales\PIC18F26K22\ASM\LCD .X\LCD_4BIT.INC
            BSUMA_DECENAS   0x00034e    program     static C:\Users\flexy\Desktop\PIC Turotiales\PIC18F26K22\ASM\LCD .X\LCD_4BIT.INC
           BSUMA_UNIDADES   0x000356    program     static C:\Users\flexy\Desktop\PIC Turotiales\PIC18F26K22\ASM\LCD .X\LCD_4BIT.INC
           CONVERSION_BCD   0x00035c    program     static C:\Users\flexy\Desktop\PIC Turotiales\PIC18F26K22\ASM\LCD .X\LCD_4BIT.INC
               S_CENTENAS   0x000364    program     static C:\Users\flexy\Desktop\PIC Turotiales\PIC18F26K22\ASM\LCD .X\LCD_4BIT.INC
            SUMA_CENTENAS   0x000372    program     static C:\Users\flexy\Desktop\PIC Turotiales\PIC18F26K22\ASM\LCD .X\LCD_4BIT.INC
                S_DECENAS   0x00037a    program     static C:\Users\flexy\Desktop\PIC Turotiales\PIC18F26K22\ASM\LCD .X\LCD_4BIT.INC
             SUMA_DECENAS   0x000388    program     static C:\Users\flexy\Desktop\PIC Turotiales\PIC18F26K22\ASM\LCD .X\LCD_4BIT.INC
            SUMA_UNIDADES   0x000390    program     static C:\Users\flexy\Desktop\PIC Turotiales\PIC18F26K22\ASM\LCD .X\LCD_4BIT.INC
                  INI_LCD   0x00039e    program     static C:\Users\flexy\Desktop\PIC Turotiales\PIC18F26K22\ASM\LCD .X\LCD_4BIT.INC
                LCD_WRITE   0x0003e4    program     static C:\Users\flexy\Desktop\PIC Turotiales\PIC18F26K22\ASM\LCD .X\LCD_4BIT.INC
           LCD_CursorIncr   0x0003f8    program     static C:\Users\flexy\Desktop\PIC Turotiales\PIC18F26K22\ASM\LCD .X\LCD_4BIT.INC
                 LCD_CTMP   0x0003fc    program     static C:\Users\flexy\Desktop\PIC Turotiales\PIC18F26K22\ASM\LCD .X\LCD_4BIT.INC
               LCD_L1MENU   0x000400    program     static C:\Users\flexy\Desktop\PIC Turotiales\PIC18F26K22\ASM\LCD .X\LCD_4BIT.INC
               LCD_L2MENU   0x000404    program     static C:\Users\flexy\Desktop\PIC Turotiales\PIC18F26K22\ASM\LCD .X\LCD_4BIT.INC
                   LCD_L1   0x000408    program     static C:\Users\flexy\Desktop\PIC Turotiales\PIC18F26K22\ASM\LCD .X\LCD_4BIT.INC
                   LCD_L2   0x00040c    program     static C:\Users\flexy\Desktop\PIC Turotiales\PIC18F26K22\ASM\LCD .X\LCD_4BIT.INC
                   LCD_L3   0x000410    program     static C:\Users\flexy\Desktop\PIC Turotiales\PIC18F26K22\ASM\LCD .X\LCD_4BIT.INC
                 LCD_L3.2   0x000414    program     static C:\Users\flexy\Desktop\PIC Turotiales\PIC18F26K22\ASM\LCD .X\LCD_4BIT.INC
                 LCD_L3.3   0x000418    program     static C:\Users\flexy\Desktop\PIC Turotiales\PIC18F26K22\ASM\LCD .X\LCD_4BIT.INC
                 LCD_L3.4   0x00041c    program     static C:\Users\flexy\Desktop\PIC Turotiales\PIC18F26K22\ASM\LCD .X\LCD_4BIT.INC
                 LCD_L3.5   0x000420    program     static C:\Users\flexy\Desktop\PIC Turotiales\PIC18F26K22\ASM\LCD .X\LCD_4BIT.INC
                 LCD_L3.6   0x000424    program     static C:\Users\flexy\Desktop\PIC Turotiales\PIC18F26K22\ASM\LCD .X\LCD_4BIT.INC
                 LCD_L3.7   0x000428    program     static C:\Users\flexy\Desktop\PIC Turotiales\PIC18F26K22\ASM\LCD .X\LCD_4BIT.INC
                 LCD_L3.8   0x00042c    program     static C:\Users\flexy\Desktop\PIC Turotiales\PIC18F26K22\ASM\LCD .X\LCD_4BIT.INC
                 LCD_L3.9   0x000430    program     static C:\Users\flexy\Desktop\PIC Turotiales\PIC18F26K22\ASM\LCD .X\LCD_4BIT.INC
                LCD_L3.10   0x000434    program     static C:\Users\flexy\Desktop\PIC Turotiales\PIC18F26K22\ASM\LCD .X\LCD_4BIT.INC
                LCD_L3.11   0x000438    program     static C:\Users\flexy\Desktop\PIC Turotiales\PIC18F26K22\ASM\LCD .X\LCD_4BIT.INC
                LCD_L3.12   0x00043c    program     static C:\Users\flexy\Desktop\PIC Turotiales\PIC18F26K22\ASM\LCD .X\LCD_4BIT.INC
                LCD_L3.13   0x000440    program     static C:\Users\flexy\Desktop\PIC Turotiales\PIC18F26K22\ASM\LCD .X\LCD_4BIT.INC
                LCD_L3.14   0x000444    program     static C:\Users\flexy\Desktop\PIC Turotiales\PIC18F26K22\ASM\LCD .X\LCD_4BIT.INC
                LCD_L3.15   0x000448    program     static C:\Users\flexy\Desktop\PIC Turotiales\PIC18F26K22\ASM\LCD .X\LCD_4BIT.INC
                LCD_L3.16   0x00044c    program     static C:\Users\flexy\Desktop\PIC Turotiales\PIC18F26K22\ASM\LCD .X\LCD_4BIT.INC
                LCD_L3.17   0x000450    program     static C:\Users\flexy\Desktop\PIC Turotiales\PIC18F26K22\ASM\LCD .X\LCD_4BIT.INC
                LCD_L3.18   0x000454    program     static C:\Users\flexy\Desktop\PIC Turotiales\PIC18F26K22\ASM\LCD .X\LCD_4BIT.INC
                LCD_L3.19   0x000458    program     static C:\Users\flexy\Desktop\PIC Turotiales\PIC18F26K22\ASM\LCD .X\LCD_4BIT.INC
                LCD_L3.20   0x00045c    program     static C:\Users\flexy\Desktop\PIC Turotiales\PIC18F26K22\ASM\LCD .X\LCD_4BIT.INC
                   LCD_L4   0x000460    program     static C:\Users\flexy\Desktop\PIC Turotiales\PIC18F26K22\ASM\LCD .X\LCD_4BIT.INC
                 LCD_L4.2   0x000464    program     static C:\Users\flexy\Desktop\PIC Turotiales\PIC18F26K22\ASM\LCD .X\LCD_4BIT.INC
                 LCD_L4.3   0x000468    program     static C:\Users\flexy\Desktop\PIC Turotiales\PIC18F26K22\ASM\LCD .X\LCD_4BIT.INC
                 LCD_L4.4   0x00046c    program     static C:\Users\flexy\Desktop\PIC Turotiales\PIC18F26K22\ASM\LCD .X\LCD_4BIT.INC
                 LCD_L4.5   0x000470    program     static C:\Users\flexy\Desktop\PIC Turotiales\PIC18F26K22\ASM\LCD .X\LCD_4BIT.INC
                 LCD_L4.6   0x000474    program     static C:\Users\flexy\Desktop\PIC Turotiales\PIC18F26K22\ASM\LCD .X\LCD_4BIT.INC
                 LCD_L4.7   0x000478    program     static C:\Users\flexy\Desktop\PIC Turotiales\PIC18F26K22\ASM\LCD .X\LCD_4BIT.INC
                 LCD_L4.8   0x00047c    program     static C:\Users\flexy\Desktop\PIC Turotiales\PIC18F26K22\ASM\LCD .X\LCD_4BIT.INC
                 LCD_L4.9   0x000480    program     static C:\Users\flexy\Desktop\PIC Turotiales\PIC18F26K22\ASM\LCD .X\LCD_4BIT.INC
                LCD_L4.10   0x000484    program     static C:\Users\flexy\Desktop\PIC Turotiales\PIC18F26K22\ASM\LCD .X\LCD_4BIT.INC
                LCD_L4.11   0x000488    program     static C:\Users\flexy\Desktop\PIC Turotiales\PIC18F26K22\ASM\LCD .X\LCD_4BIT.INC
                LCD_L4.12   0x00048c    program     static C:\Users\flexy\Desktop\PIC Turotiales\PIC18F26K22\ASM\LCD .X\LCD_4BIT.INC
                LCD_L4.13   0x000490    program     static C:\Users\flexy\Desktop\PIC Turotiales\PIC18F26K22\ASM\LCD .X\LCD_4BIT.INC
                LCD_L4.14   0x000494    program     static C:\Users\flexy\Desktop\PIC Turotiales\PIC18F26K22\ASM\LCD .X\LCD_4BIT.INC
                LCD_L4.15   0x000498    program     static C:\Users\flexy\Desktop\PIC Turotiales\PIC18F26K22\ASM\LCD .X\LCD_4BIT.INC
                LCD_L4.16   0x00049c    program     static C:\Users\flexy\Desktop\PIC Turotiales\PIC18F26K22\ASM\LCD .X\LCD_4BIT.INC
                LCD_L4.17   0x0004a0    program     static C:\Users\flexy\Desktop\PIC Turotiales\PIC18F26K22\ASM\LCD .X\LCD_4BIT.INC
                LCD_L4.18   0x0004a4    program     static C:\Users\flexy\Desktop\PIC Turotiales\PIC18F26K22\ASM\LCD .X\LCD_4BIT.INC
                LCD_L4.19   0x0004a8    program     static C:\Users\flexy\Desktop\PIC Turotiales\PIC18F26K22\ASM\LCD .X\LCD_4BIT.INC
                LCD_L4.20   0x0004ac    program     static C:\Users\flexy\Desktop\PIC Turotiales\PIC18F26K22\ASM\LCD .X\LCD_4BIT.INC
       LCD_PosicionLinea1   0x0004b0    program     static C:\Users\flexy\Desktop\PIC Turotiales\PIC18F26K22\ASM\LCD .X\LCD_4BIT.INC
       LCD_PosicionLinea2   0x0004b4    program     static C:\Users\flexy\Desktop\PIC Turotiales\PIC18F26K22\ASM\LCD .X\LCD_4BIT.INC
                  LCD_OFF   0x0004b8    program     static C:\Users\flexy\Desktop\PIC Turotiales\PIC18F26K22\ASM\LCD .X\LCD_4BIT.INC
                 LCD_C_ON   0x0004bc    program     static C:\Users\flexy\Desktop\PIC Turotiales\PIC18F26K22\ASM\LCD .X\LCD_4BIT.INC
                LCD_C_OFF   0x0004c0    program     static C:\Users\flexy\Desktop\PIC Turotiales\PIC18F26K22\ASM\LCD .X\LCD_4BIT.INC
                LCD_CLEAR   0x0004c4    program     static C:\Users\flexy\Desktop\PIC Turotiales\PIC18F26K22\ASM\LCD .X\LCD_4BIT.INC
      LCD_2Lineas4Bits5x7   0x0004c8    program     static C:\Users\flexy\Desktop\PIC Turotiales\PIC18F26K22\ASM\LCD .X\LCD_4BIT.INC
                  LCD_CMD   0x0004ca    program     static C:\Users\flexy\Desktop\PIC Turotiales\PIC18F26K22\ASM\LCD .X\LCD_4BIT.INC
               SET_CURSOR   0x0004ce    program     static C:\Users\flexy\Desktop\PIC Turotiales\PIC18F26K22\ASM\LCD .X\LCD_4BIT.INC
           LCD_CURSOR_BON   0x0004d0    program     static C:\Users\flexy\Desktop\PIC Turotiales\PIC18F26K22\ASM\LCD .X\LCD_4BIT.INC
              ENVIAR_DATO   0x0004d4    program     static C:\Users\flexy\Desktop\PIC Turotiales\PIC18F26K22\ASM\LCD .X\LCD_4BIT.INC
                LCD_Envia   0x0004da    program     static C:\Users\flexy\Desktop\PIC Turotiales\PIC18F26K22\ASM\LCD .X\LCD_4BIT.INC
          LCD_CodigoCGROM   0x0004f2    program     static C:\Users\flexy\Desktop\PIC Turotiales\PIC18F26K22\ASM\LCD .X\LCD_4BIT.INC
        LCD_EnheMinuscula   0x0004f4    program     static C:\Users\flexy\Desktop\PIC Turotiales\PIC18F26K22\ASM\LCD .X\LCD_4BIT.INC
        LCD_EnheMayuscula   0x000504    program     static C:\Users\flexy\Desktop\PIC Turotiales\PIC18F26K22\ASM\LCD .X\LCD_4BIT.INC
                LCD_Grado   0x000516    program     static C:\Users\flexy\Desktop\PIC Turotiales\PIC18F26K22\ASM\LCD .X\LCD_4BIT.INC
             LCD_FinCGROM   0x000524    program     static C:\Users\flexy\Desktop\PIC Turotiales\PIC18F26K22\ASM\LCD .X\LCD_4BIT.INC
             LCD_CLEAR_L1   0x000528    program     static C:\Users\flexy\Desktop\PIC Turotiales\PIC18F26K22\ASM\LCD .X\LCD_4BIT.INC
             LCD_CLEAR_L2   0x000532    program     static C:\Users\flexy\Desktop\PIC Turotiales\PIC18F26K22\ASM\LCD .X\LCD_4BIT.INC
             LCD_CLEAR_L3   0x00053c    program     static C:\Users\flexy\Desktop\PIC Turotiales\PIC18F26K22\ASM\LCD .X\LCD_4BIT.INC
             LCD_CLEAR_L4   0x000546    program     static C:\Users\flexy\Desktop\PIC Turotiales\PIC18F26K22\ASM\LCD .X\LCD_4BIT.INC
          LCD_LINEA_CLEAR   0x000550    program     static C:\Users\flexy\Desktop\PIC Turotiales\PIC18F26K22\ASM\LCD .X\LCD_4BIT.INC
           LCD_SEND_WHITE   0x000554    program     static C:\Users\flexy\Desktop\PIC Turotiales\PIC18F26K22\ASM\LCD .X\LCD_4BIT.INC
                 LCD_Byte   0x000562    program     static C:\Users\flexy\Desktop\PIC Turotiales\PIC18F26K22\ASM\LCD .X\LCD_4BIT.INC
         LCD_ByteCompleto   0x000576    program     static C:\Users\flexy\Desktop\PIC Turotiales\PIC18F26K22\ASM\LCD .X\LCD_4BIT.INC
        LCD_VisualizaAlto   0x000578    program     static C:\Users\flexy\Desktop\PIC Turotiales\PIC18F26K22\ASM\LCD .X\LCD_4BIT.INC
        LCD_VisualizaBajo   0x00057e    program     static C:\Users\flexy\Desktop\PIC Turotiales\PIC18F26K22\ASM\LCD .X\LCD_4BIT.INC
               LCD_Nibble   0x000580    program     static C:\Users\flexy\Desktop\PIC Turotiales\PIC18F26K22\ASM\LCD .X\LCD_4BIT.INC
       LCD_EnviaByteLetra   0x000594    program     static C:\Users\flexy\Desktop\PIC Turotiales\PIC18F26K22\ASM\LCD .X\LCD_4BIT.INC
   LCD_FinVisualizaDigito   0x000598    program     static C:\Users\flexy\Desktop\PIC Turotiales\PIC18F26K22\ASM\LCD .X\LCD_4BIT.INC


